SO: C:\Users\Admin\Videos\New folder\waker\lib\armeabi\libcity_ar.so size 7814452
installed_libcity_ar.so size 7814452 (same build)

========================================================================
(B) crypto / parse / compress symbols in dynsym
========================================================================
  0x00000000 inflateInit_
  0x00000000 inflate
  0x00000000 inflateEnd
  0x00000000 inflateInit2_
  0x00000000 SHA1Init
  0x00000000 SHA1Update
  0x00000000 SHA1Final
  0x0030b08c _ZN12CAchievement5ParseEPv
  0x0030b64c _ZN18CAchievementScreen17ParseAchievementsEPv
  0x0030bbf8 _ZN17CAchievementSkill5ParseEPv
  0x0030cb10 _ZN12CActionEvent5ParseEPv
  0x0030cb64 _ZN12CActionEvent16ParseAppearRatioEPv
  0x00313d84 _ZN26CActiveChallengeRankScreen21ParsePersonRankUpDataEPv
  0x00313e28 _ZN26CActiveChallengeRankScreen22ParsePersonRankMidDataEPv
  0x00313ecc _ZN26CActiveChallengeRankScreen23ParsePersonRankDownDataEPv
  0x003142b8 _ZN26CActiveChallengeRankScreen20ParseFactionRankDataEPv
  0x00317470 _ZN19CActiveDetailScreen13ParseKillDataEPv
  0x003186c8 _ZN19CActiveResultScreen15ParseActiveRankEPv
  0x00319c98 _ZN13CActiveStatus5ParseEPv
  0x0031a524 _ZN9CActivity13ParseActivityEPv
  0x0031aa68 _ZN9CActivity18ParseRelationGoodsEPv
  0x0031aae0 _ZN9CActivity15ParseViewConfigEPv
  0x0031ace8 _ZN9CActivity21ParseActivityExchangeEPv
  0x0031acf4 _ZN9CActivity21ParseNewActiveRewardsEPv
  0x0031ae70 _ZN9CActivity18ParseGlobalRewardsEPv
  0x0031afa4 _ZN9CActivity28ParseActiveExtraConfigByTypeEPvi
  0x0031afb2 _ZN9CActivity10ParseExtraEPv
  0x0031afec _ZN9CActivity20parseDugPrdtNumRangeEPv
  0x0031b200 _ZN9CActivity21ParseActiveDataByTypeEPvi
  0x0031b21c _ZN9CActivity30ParseActivechallengeConfigInfoEPv
  0x0031b430 _ZN9CActivity21ParsePersonActiveInfoEPv
  0x0031b4a8 _ZN9CActivity27ParsePersonStageRewardsInfoEPv
  0x0031b542 _ZN9CActivity28ParseFactionStageRewardsInfoEPv
  0x0031b5dc _ZN9CActivity30ParsePersonEasyRankRewardsInfoEPv
  0x0031b676 _ZN9CActivity32ParsePersonNormalRankRewardsInfoEPv
  0x0031b710 _ZN9CActivity30ParsePersonHardRankRewardsInfoEPv
  0x0031b7aa _ZN9CActivity27ParseFactionRankRewardsInfoEPv
  0x0031b844 _ZN9CActivity16ParseRankRewardsEPv
  0x0031ba9c _ZN9CActivity10ParseInnerER10ngStringV2
  0x0031bb84 _ZN9CActivity22ParseActiveBossWarCityEPv
  0x0031bbe6 _ZN9CActivity21ParseActiveOccupyCityEPv
  0x0031c7aa _ZN9CActivity19DoParseBehaviorDataEPv
  0x0031ca52 _ZN14CActivityExtra5ParseEPv
  0x0031cc20 _ZN21CActivity_ThxGivingV119DoParseBehaviorDataEPv
  0x0031cc50 _ZN21CActivity_ThxGivingV113ParseGiftDataEPv
  0x0031ce04 _ZN21CActivity_ThxGivingV219DoParseBehaviorDataEPv
  0x0031ce34 _ZN21CActivity_ThxGivingV213ParseGiftDataEPv
  0x0031d184 _ZN20CActivity_LotterTick16ParseRankRewardsEPv
  0x0031e1d8 _ZN17CActivityComeBack23DoParseRecallConfigDataEPv
  0x0031e2f0 _ZN17CActivityComeBack15ParseDayRewardsEPv
  0x0031e3ec _ZN17CActivityComeBack18ParseReturnRewardsEPv
  0x0031e508 _ZN17CActivityComeBack18ParseReCallRewardsEPv
  0x0031e624 _ZN17CActivityComeBack21ParseReCallNumRewardsEPv
  0x0031e734 _ZN17CActivityComeBack17ParseSubGoodsListEPvP12ngLinkedList
  0x0031e938 _ZN18CActivity_GoldGift19DoParseBehaviorDataEPv
  0x0031e968 _ZN18CActivity_GoldGift13ParseGiftDataEPv
  0x0031eb24 _ZN19CActivity_StreetWar13DoParseSWDataEPv
  0x0031ecd8 _ZN19CActivity_StreetWar16ParseSWFightTimeEPv
  0x0031f0e8 _ZN9CActivity23DoParseRecallConfigDataEPv
  0x0031f0ea _ZN9CActivity13DoParseSWDataEPv
  0x0031f0f4 _ZN20CActivity_LotterTick19DoParseBehaviorDataEPv
  0x00321968 _ZN10CAdvertise15ParseCAdvertiseEPv
  0x003220ee _ZN16CAdvertiseScreen9ParseListEPv
  0x00323338 _ZN14CAirLineScreen12ParseArrivedEPv
  0x00324b04 _ZN14CAirportScreen13ParseAirlinesEPv
  0x00327484 _ZN22CApplicationListScreen9ParseListEPv
  0x00327bc0 _ZN6CArmor5ParseEPv
  0x00327f10 _ZN8CAuction15ParseMyAuctionsEPv
  0x00329884 _ZN19CAuctionEventScreen14ParseEventListEPv
  0x0032eeac _ZN4CBag5ParseEPv
  0x0032ef18 _ZN4CBag17ParseSpecialPriceEPv
  0x00330f40 _ZN7CBattle5ParseEPv
  0x00331924 _ZN23CBattleStatisticsScreen21ParseBattleStatisticsEPv
  0x0033bca0 _ZN14CBossWarScreen16ParseDisplayRankEPv
  0x0033be44 _ZN14CBossWarScreen22ParseCurrentBossDetailEPv
  0x0033db04 _ZN13CCBListScreen9ParseListEPv
  0x0033e710 _ZN13CCBMainScreen20ParseCBRewardsStatusEPv
  0x0033ffec _ZN9CCBWeapon5ParseEPv
  0x00341ad8 _ZN13CCLMainScreen10ParseFightEPvh
  0x00341b80 _ZN13CCLMainScreen11ParseRewardEPv
  0x00347e4c _ZN11CChatScreen15ParseNewMsgFlagEPv
  0x00347edc _ZN11CChatScreen8ParseMsgEPv
  0x003483e0 _ZN11CChatScreen18_ParseKingFightMsgEP6_msg_tPv
  0x00348660 _ZN11CChatScreen19_ParseKingTitleListEP6_msg_tPv
  0x0034ae00 _ZN11CChatScreen14ParsePulledMsgEPv
  0x0034b7ac _ZN11CChatScreen18ParseRedPacketInfoEPvR10ngStringV2RiS2_S3_S3_
  0x0034b8a0 _ZN11CChatScreen12ParseTeamMsgEPvR10ngStringV2
  0x0034b998 _ZN11CChatScreen18ParseCKFPublishMsgEPvR10ngStringV2Ri
  0x0034b9e8 _ZN11CChatScreen18ParseCarPublishMsgEPvR10ngStringV2RiS3_S3_Rx
  0x0034baac _ZN11CChatScreen19ParseDzpkPublishMsgEPvR10ngStringV2Ri
  0x0034cef0 _ZN12CCircleMnger11ParseCircleEPv
  0x0034d1fc _ZN12CCircleMnger16ParseCircleNodesEPv
  0x0034d590 _ZN11CCircleNode5ParseEPv
  0x0034df98 _ZN7CCitier5ParseEPv
  0x0034e9fc _ZN7CCitier15ParseDetailInfoEPv
  0x0034f934 _ZN7CCitier13ParseDrugInfoEPv
  0x0034fa6c _ZN7CCitier12ParseFactionEPv
  0x0034fa98 _ZN7CCitier26ParseAchievementSkillLevelEPv
  0x0034fb90 _ZN7CCitier19ParseMercenarySkillEPv
  0x0034fc98 _ZN7CCitier13ParseSubjectsEPv
  0x0034fd44 _ZN7CCitier17ParseHuntFoodInfoEPv
  0x0034fe4c _ZN7CCitier17ParseFactionEnemyEPv
  0x00350128 _ZN7CCitier11ParseWantedEPv
  0x003503cc _ZN7CCitier18ParseFactionMemberEPv
  0x00350700 _ZN7CCitier13ParsePrisonerEPv
  0x003509c8 _ZN7CCitier17ParseSearchResultEPv
  0x00350cf4 _ZN7CCitier13ParseFeedBackEPv
  0x00350e54 _ZN7CCitier15ParseMasterInfoEPv
  0x00350f30 _ZN7CCitier15ParseLadderInfoEPv
  0x0035115c _ZN7CCitier19ParseDealMarketInfoEPv
  0x00351314 _ZN7CCitier13ParseKillDataEPv
  0x003515c0 _ZN7CCitier21ParseFightCompetitionEPv
  0x003518f4 _ZN7CCitier29ParseKingFightApplyMemberInfoEPv
  0x00351b1c _ZN7CCitier29ParseKingFightCorpsMemberInfoEPv
  0x00352370 _ZN7CCitier22ParseSWEnemyMemberInfoEPv
  0x0035688c _ZN13CCitierScreen17ParseAchievementsEPv
  0x00356968 _ZN13CCitierScreen19ParseHuntSampleDataEPv
  0x00357804 _ZN5CCity5ParseEPv
  0x0035ca96 _ZN20CCityWarResultScreen16ParseFactionListEPv
  0x0035d714 _ZN14CCityWarScreen12ParseCityWarEPv
  0x0035e9c8 _ZN13CConfigure_RG9ParseDataEPv
  0x0035edb8 _ZN29CConfigure_RG_Atheltic_Reward9ParseDataEPv
  0x0035f0ac _ZN13CConfigure_TG9ParseDataEPv
  0x0035f230 _ZN14CConfigureBase9ParseDataEPv
  0x0035ffbc _ZN14CCooperateBoss5ParseEPvi
  0x00360294 _ZN14CCooperateBoss12ParseFixInfoEPv
  0x0036031c _ZN14CCooperateBoss14ParseDropGoodsEPv
  0x00362730 _ZN21CCooperateFightScreen13ParseHarmRankEPv
  0x00364138 _ZN20CCooperateListScreen9ParseListEPvi
  0x003650bc _ZN5CCorp5ParseEPv
  0x003663c4 _ZN17CCorpsFightScreen9ParseListEPv
  0x003664e4 _ZN17CCorpsFightScreen14ParseFightInfoEPv
  0x003665ac _ZN17CCorpsFightScreen16ParseFightResultEPv
  0x00368748 _ZN18CCorpsManageScreen9ParseListEPv
  0x00369078 _ZN6CCrime5ParseEPv
  0x0036a0bc _ZN12CCrimeScreen20ParseDoCrimeResponseEPvh
  0x0036c174 _ZN10CCrimeType5ParseEPv
  0x00371d24 _ZN20CDZ_ChooseModeScreen14ParseRoomTypesEPv
  0x00375200 _ZN14CDZ_MainScreen14ParseGlobCardsEPvR10ngStringV2
  0x00375ac4 _ZN14CDZ_MainScreen14ParseGoldCardsEPv
  0x003776ec _ZN10CDZ_Player15ParsePlayerInfoEPvi
  0x003779f8 _ZN10CDZ_Player21ParseFormatPlayerNameER10ngStringV2
  0x00377a4c _ZN10CDZ_Player22ParseFormatFactionNameER10ngStringV2
  0x00377aa0 _ZN10CDZ_Player14ParseHandCardsEPv
  0x00377c54 _ZN10CDZ_Player19ParsePlayerSyncInfoEPvi
  0x00377e20 _ZN10CDZ_Player18ParseSyncHandCardsEPv
  0x00377f84 _ZN10CDZ_Player29ParseNoCallOrAddOrCallOrAllInEPv
  0x003780ac _ZN10CDZ_Player12ParseGameEndEPvi
  0x00378400 _ZN10CDZ_Player14ParseStartMoveEPv
  0x0037b24c _ZN14CDZ_PlayersMng18ParseRoomPublicMsgEPv
  0x0037b3c4 _ZN14CDZ_PlayersMng15ParsePlayerListEPv
  0x0037b6a4 _ZN14CDZ_PlayersMng11ParsePlayerEPv
  0x0037c190 _ZN14CDZ_PlayersMng19ParsePlayerSyncListEPv
  0x0037c53c _ZN14CDZ_PlayersMng15ParseSyncPlayerEPv
  0x003837d4 _ZN23CDealMarketDetailScreen17ParseDetailTaobaoEPv
  0x003871cc _ZN15CDecorateScreen5ParseEPvi
  0x00387bbc _ZN11CDecoration5ParseEPv
  0x0038dbe8 _ZN5CDrug5ParseEPv
  0x00392f08 _ZN16CEquipmentScreen14ParseWarehouseEPv
  0x00392f68 _ZN16CEquipmentScreen8ParseBagEPv
  0x003970a4 _ZN12CErrorScreen11ParseStatusEPvh
  0x0039741c _ZN6CEvent10ParseEventEPv
  0x00397900 _ZN6CEvent15ParseCrimeEventEPv
  0x00397930 _ZN6CEvent15ParseFightEventEPv
  0x003979c4 _ZN6CEvent17ParseFightedEventEPv
  0x00397ac4 _ZN6CEvent15ParseJudgeEventEPv
  0x00397b58 _ZN6CEvent16ParseJudgedEventEPv
  0x00397cbc _ZN6CEvent18ParseJoinGangEventEPv
  0x00397d04 _ZN6CEvent24ParseRejectJoinGangEventEPv
  0x00397d4c _ZN6CEvent15ParseMarryEventEPv
  0x00397d94 _ZN6CEvent21ParseFightWantedEventEPv
  0x00397e64 _ZN6CEvent16ParseDealSoldOutEPv
  0x00397f9c _ZN6CEvent9ParseGiftEPv
  0x00398118 _ZN6CEvent21ParseAchievementEventEPv
  0x00398198 _ZN6CEvent25ParseBuyCancelWantedEventEPv
  0x0039822c _ZN6CEvent16ParseWantedEventEPv
  0x003982c0 _ZN6CEvent14ParseBailEventEPv
  0x00398354 _ZN6CEvent21ParseRandomGoodsEventEPv
  0x003983e4 _ZN6CEvent22ParseForceDivorceEventEPv
  0x00398454 _ZN6CEvent22ParseMaintainCostEventEPv
  0x003984d4 _ZN6CEvent28ParseDriveOutNoMaintainEventEPv
  0x0039858c _ZN6CEvent24ParseDriveOutSpouseEventEPv
  0x003985fc _ZN6CEvent25ParseRecommendRewardEventEPv
  0x003987bc _ZN6CEvent17ParseDivorceEventEPv
  0x0039882c _ZN6CEvent20ParseJailBreaksEventEPv
  0x0039889c _ZN6CEvent25ParseJailBreakFailedEventEPv
  0x0039890c _ZN6CEvent23ParseFactionChangeTitleEPv
  0x003989a0 _ZN6CEvent26ParseFactionLeaderTransferEPv
  0x00398a10 _ZN6CEvent16ParseFactionKickEPv
  0x00398abc _ZN6CEvent18ParseActivityAwardEPv
  0x00398de4 _ZN6CEvent17ParseCityWarStartEPv
  0x00398e3c _ZN6CEvent16ParseCityWarFailEPv
  0x00398e6c _ZN6CEvent19ParseCityWarSuccessEPv
  0x00398efc _ZN6CEvent18ParseRejectDivorceEPv
  0x00398f6c _ZN6CEvent18ParseRejectProposeEPv
  0x00398fdc _ZN6CEvent16ParseHouseBoughtEPv
  0x003990bc _ZN6CEvent14ParseHouseRentEPv
  0x003991c0 _ZN6CEvent17ParseRentMaturityEPv
  0x003991f0 _ZN6CEvent23ParseRedBlackArrayAwardEPv
  0x00399284 _ZN6CEvent19ParseHiredBodyguardEPv
  0x00399340 _ZN6CEvent20ParseBodyguardBeatenEPv
  0x003993ec _ZN6CEvent22ParseBodyguardMaturityEPv
  0x0039945c _ZN6CEvent22ParseBodyguardWasFiredEPv
  0x003994cc _ZN6CEvent26ParseBodyguardBeatenResultEPv
  0x00399648 _ZN6CEvent15ParseEndOfStudyEPv
  0x00399678 _ZN6CEvent18ParseBossWarBatterEPv
  0x00399744 _ZN6CEvent15ParseLevelSpreeEPv
  0x003997d8 _ZN6CEvent17ParseDrugToxicityEPv
  0x003998bc _ZN6CEvent12ParseTraitorEPv
  0x00399924 _ZN6CEvent17ParseApproveCoachEPv
  0x0039998c _ZN6CEvent13ParseFireApprEPv
  0x003999f4 _ZN6CEvent16ParseRejectCoachEPv
  0x00399a5c _ZN6CEvent17ParseRewardMasterEPv
  0x00399c38 _ZN6CEvent22ParseMentoringRewardedEPv
  0x00399d78 _ZN6CEvent15ParseApprGrowUpEPv
  0x00399f9c _ZN6CEvent20ParseLadderWeekAwardEPv
  0x0039a174 _ZN6CEvent26ParseGiveGiftPersonalEventEPv
  0x0039a288 _ZN6CEvent23ParseAcceptMasterInviteEPv
  0x0039a2f0 _ZN6CEvent23ParseRejectMasterInviteEPv
  0x0039a358 _ZN6CEvent12ParseAuctionEPv
  0x0039a408 _ZN6CEvent19ParseAuctionSuccessEPv
  0x0039a4dc _ZN6CEvent21ParseFirstChargeAwardEPv
  0x0039a548 _ZN6CEvent15ParseManagementEPv
  0x0039a620 _ZN6CEvent14ParseWeekAwardEPv
  0x0039a694 _ZN6CEvent22ParseGuardFightFailureEPv
  0x0039a728 _ZN6CEvent19ParseFactionDismissEPv
  0x0039a770 _ZN6CEvent16ParseMaidExpiredEPv
  0x0039a7a0 _ZN6CEvent17ParseSystemUpdateEPv
  0x0039a7cc _ZN6CEvent22Parse50LevelLuxuryGiftEPv
  0x0039a85c _ZN6CEvent16ParseOpenMilitiaEPv
  0x0039a8a4 _ZN6CEvent17ParseMilitiaAwardEPv
  0x0039a8d4 _ZN6CEvent29ParseCooperationBossDropItemsEPv
  0x0039a900 _ZN6CEvent23ParseWatchVideoADRewardEPv
  0x0039a92c _ZN6CEvent18ParseDailyBossGiftEPv
  0x0039a958 _ZN6CEvent22ParseFactionFinalAwardEPv
  0x0039a9a8 _ZN6CEvent22ParseCitywarFinalAwardEPv
  0x0039a9d4 _ZN6CEvent19ParseToGetGoodsNameEii
  0x0039a9fe _ZN6CEvent19ParseToGetGoodsNameEiii
  0x0039aa46 _ZN6CEvent19ParseListToFindNameEP12ngLinkedList
  0x0039aa48 _ZN6CEvent18ParseFactionEventsEPv
  0x0039abac _ZN6CEvent24ParseFactionContributionEPv
  0x0039ac40 _ZN6CEvent23ParseFactionBattleStartEPv
  0x0039ac88 _ZN6CEvent21ParseFactionBeBattledEPv
  0x0039acd0 _ZN6CEvent24ParseFactionBattleResultEPv
  0x0039adac _ZN6CEvent23ParseFactionConsisFightEPv
  0x0039aea0 _ZN6CEvent24ParseFactionMemberJoinedEPv
  0x0039aee8 _ZN6CEvent29ParseFactionMemberTitleChangeEPv
  0x0039af90 _ZN6CEvent24ParseFactionFactionSkillEPv
  0x0039afe8 _ZN6CEvent23ParseFactionLevelUpdateEPv
  0x0039b018 _ZN6CEvent20ParseFactionTransferEPv
  0x0039b09c _ZN6CEvent26ParseFactionLeaderWithdrawEPv
  0x0039b10c _ZN6CEvent22ParseFactionMemberQuitEPv
  0x0039b154 _ZN6CEvent22ParseFactionKickMemberEPv
  0x0039b1d8 _ZN6CEvent24ParseFactionCitywarStartEPv
  0x0039b230 _ZN6CEvent27ParseFactionCitywarSucccessEPv
  0x0039b2c4 _ZN6CEvent28ParseFactionCitywarTaxPerDayEPv
  0x0039b31c _ZN6CEvent23ParseFactionCitywarFailEPv
  0x0039b34c _ZN6CEvent22ParseFctionJoinMilitiaEPv
  0x0039b394 _ZN6CEvent25ParseFactionAwardPregisteEPv
  0x0039b3c4 _ZN6CEvent20ParseValentineEventsEPv
  0x0039b454 _ZN6CEvent19ParseEvalentineSendEPv
  0x0039b4e4 _ZN6CEvent22ParseEvalentineReceiveEPv
  0x0039b70c _ZN6CEvent19ParseAwardGoodsListEPv
  0x0039b914 _ZN6CEvent20ParseLadderEventListEPv
  0x0039ba34 _ZN6CEvent15ParseGoodsArrayEPv
  0x0039baa6 _ZN6CEvent27ParseFactionFinalAwardGoodsEPv
  0x0039bb24 _ZN6CEvent15ParseArrayGoodsEPv
  0x0039d654 _ZN12CEventScreen14ParseEventListEPv
  0x0039d7bc _ZN12CEventScreen18ParseFactionEventsEPv
  0x0039d940 _ZN12CEventScreen20ParseValentineEventsEPv
  0x003a39cc _ZN8CEventV210ParseEventEPv
  0x003a3b00 _ZN8CEventV214ParseAwardListEPv
  0x003a447c _ZN21CEventMercenaryUpStar10ParseEventEPv
  0x003a4588 _ZN22CEventMercenaryUpSkill10ParseEventEPv
  0x003a480c _ZN19CEventMercenaryCall10ParseEventEPv
  0x003a48f4 _ZN23CEventMercenaryLevelGet10ParseEventEPv
  0x003a4b68 _ZN18CEventAwardLoyalty10ParseEventEPv
  0x003a4cfc _ZN22CEventKingApplySuccess10ParseEventEPv
  0x003a4e8c _ZN21CEventKingApplyRefuse10ParseEventEPv
  0x003a4f8c _ZN23CEventKingEnrollSuccess10ParseEventEPv
  0x003a50d8 _ZN17CEventKingVoteOne10ParseEventEPv
  0x003a5278 _ZN18CEventKingThrowOut10ParseEventEPv
  0x003a540c _ZN18CEventKingBeatLost10ParseEventEPv
  0x003a5600 _ZN17CEventKingUseBomb10ParseEventEPv
  0x003a577c _ZN16CEventKingBeBomb10ParseEventEPv
  0x003a58a0 _ZN14CEventKingNumV10ParseEventEPv
  0x003a5998 _ZN22CEventKingSorceConvert10ParseEventEPv
  0x003a5abc _ZN24CEventKingVoteRankReward10ParseEventEPv
  0x003a5e30 _ZN18CEventKingTobeKing10ParseEventEPv
  0x003a5ec4 _ZN16CEventKingGetRed10ParseEventEPv
  0x003a6060 _ZN19CEventKingGrantName10ParseEventEPv
  0x003a61ec _ZN16CEventKingConsis10ParseEventEPv
  0x003a63b8 _ZN17CEventKingGetName10ParseEventEPv
  0x003a668c _ZN23CEventKingFactionEnroll10ParseEventEPv
  0x003a6898 _ZN20CEventKingNoFeedBack10ParseEventEPv
  0x003a6a14 _ZN19CEventKingLeaveCorp10ParseEventEPv
  0x003a6b00 _ZN21CEventKingGievBackRed10ParseEventEPv
  0x003a6c60 _ZN22CEventKingNewApplyCorp10ParseEventEPv
  0x003a6d1c _ZN22CEventKingGievbackFeed10ParseEventEPv
  0x003a6e80 _ZN18CEventATFinishItem10ParseEventEPv
  0x003a6fd8 _ZN21CEventATSectionReward10ParseEventEPv
  0x003a7164 _ZN23CEventNewActivityReward10ParseEventEPv
  0x003a7478 _ZN22CEventDevelopApplyPass10ParseEventEPv
  0x003a7578 _ZN24CEventDevelopApplyReject10ParseEventEPv
  0x003a7648 _ZN20CEventDevelopSuccess10ParseEventEPv
  0x003a7734 _ZN19CEventDevelopRevoke10ParseEventEPv
  0x003a7820 _ZN18CEventDevelopStart10ParseEventEPv
  0x003a7960 _ZN13CEventPEApply10ParseEventEPv
  0x003a7b50 _ZN14CEventPEFinish10ParseEventEPv
  0x003a7d98 _ZN16CEventFABeatLost10ParseEventEPv
  0x003a7e90 _ZN17CEventFGBossCombo10ParseEventEPv
  0x003a7f94 _ZN18CEventFGBossRelive10ParseEventEPv
  0x003a7ff8 _ZN21CEventFGBossJionAward10ParseEventEPv
  0x003a80fc _ZN17CEventFGBeatedWin10ParseEventEPv
  0x003a81f0 _ZN18CEventCBReturnGift10ParseEventEPv
  0x003a82f0 _ZN18CEventCBReCallGift10ParseEventEPv
  0x003a843c _ZN21CEventCBReCallPayGift10ParseEventEPv
  0x003a85b8 _ZN21CEventCBReCallNumGift10ParseEventEPv
  0x003a86c8 _ZN20CEventCKFHouseExpire10ParseEventEPv
  0x003a8760 _ZN19CEventYBStoreShevle10ParseEventEPv
  0x003a889c _ZN16CEventYBStoreBuy10ParseEventEPv
  0x003a89e0 _ZN17CEventMilitiaOver10ParseEventEPv
  0x003a8b60 _ZN20CEventFactionCanvass10ParseEventEPv
  0x003a8c74 _ZN17CEventFactionVote10ParseEventEPv
  0x003a8e88 _ZN24CEventFactionResetAvatar10ParseEventEPv
  0x003a8ffc _ZN28CEventFactionATSectionReward10ParseEventEPv
  0x003a92d0 _ZN25CEventFactionActiveReward10ParseEventEPv
  0x003a95c0 _ZN28CEventFactionActFinishBranch10ParseEventEPv
  0x003a97d0 _ZN19CEventFFBossRelease10ParseEventEPv
  0x003a9908 _ZN16CEventFFBossDead10ParseEventEPv
  0x003a9a44 _ZN18CEventFFBossRelive10ParseEventEPv
  0x003a9ba0 _ZN16CEventFFBossRest10ParseEventEPv
  0x003a9cfc _ZN21CEventFFDevelopNotice10ParseEventEPv
  0x003a9f28 _ZN20CEventFFDevelopSpeed10ParseEventEPv
  0x003aa07c _ZN17CEventFFFactoryUp10ParseEventEPv
  0x003aa19c _ZN17CEventFFDecompose10ParseEventEPv
  0x003aa370 _ZN33CEventFactionSuccessfulEnrollment10ParseEventEPv
  0x003aa520 _ZN30CEventFactionPacketInformation10ParseEventEPv
  0x003aa970 _ZN24CEventFactionMatchReslut10ParseEventEPv
  0x003aac50 _ZN27CEventFactionFailEnrollment10ParseEventEPv
  0x003aad14 _ZN17CEventRGSysReward10ParseEventEPv
  0x003aae98 _ZN20CEventRGPlayerReward10ParseEventEPv
  0x003ab044 _ZN18CEventRGMatchStart10ParseEventEPv
  0x003ab248 _ZN21CEventRGDungeonReward10ParseEventEPv
  0x003ab3c8 _ZN19CEventRGMatchReward10ParseEventEPv
  0x003ab528 _ZN19CEventRGBigAccident10ParseEventEPv
  0x003ab7ac _ZN18CEventHGGainSpoils10ParseEventEPv
  0x003ab8b4 _ZN18CEventHGGainSample10ParseEventEPv
  0x003ab994 _ZN18CEventHGInhospital10ParseEventEPv
  0x003aba74 _ZN17CEventVerifyEmail10ParseEventEPv
  0x003abb24 _ZN26CEventSuccessfulEnrollment10ParseEventEPv
  0x003abcd4 _ZN23CEventPacketInformation10ParseEventEPv
  0x003abff4 _ZN17CEventMatchReslut10ParseEventEPv
  0x003ac2e4 _ZN16CEventSWTopWiner10ParseEventEPv
  0x003ac3ec _ZN14CEventWinTimes10ParseEventEPv
  0x003ac4c4 _ZN20CEventFailEnrollment10ParseEventEPv
  0x003ac530 _ZN18CEventBuyMonthCard10ParseEventEPv
  0x003ac5e0 _ZN20CEventReceiveRewards10ParseEventEPv
  0x003ac690 _ZN20CEventRemindRenewals10ParseEventEPv
  0x003ac744 _ZN17CEventPitMaxYield10ParseEventEPv
  0x003ac8c0 _ZN17CEventFinishClass10ParseEventEPv
  0x003aca40 _ZN17CEventTimeLastDay10ParseEventEPv
  0x003acbbc _ZN17CEventPitOccupied10ParseEventEPv
  0x003ad874 _ZN13CExchangeNeed5ParseEPv
  0x003af7b4 _ZN8CFA_Data11ParseFADataEPv
  0x003afa08 _ZN10CFA_Config17ParseFAConfigInfoEPv
  0x003afafc _ZN10CFA_Config18ParseFAConfigValueEPv
  0x003afd18 _ZN10CFA_Config18ParseFARewardsInfoEPvP10_FA_Reward
  0x003afdb8 _ZN10CFA_Config24ParseFARewardsDetailInfoEPvP10_FA_Reward
  0x003b043c _ZN17CFA_LookProScreen9ParseDataEPv
  0x003b1bc4 _ZN14CFA_MainScreen11ParseFADataEPv
  0x003b1e74 _ZN14CFA_MainScreen16ParseFightResultEPv
  0x003b3774 _ZN14CFA_RankScreen9ParseListEPv
  0x003b6834 _ZN8CFF_Boss9ParseBossEPv
  0x003b6c1c _ZN8CFF_Boss15ParseImpartBossEPv
  0x003b8490 _ZN18CFF_BossListScreen9ParseListEPv
  0x003ba3dc _ZN21CFF_BreakRecordScreen19ParseRecordDataListEPv
  0x003bc0e8 _ZN15CFF_FightScreen18GetParseRewardListEPvP12ngLinkedList
  0x003bc6a0 _ZN12CFF_RankData5ParseEPv
  0x003bfa90 _ZN14CFG_AwakenData15ParseAwakenDataEPv
  0x003c3f4c _ZN14CFG_BossScreen18GetParseRewardListEPvP12ngLinkedList
  0x003c4020 _ZN14CFG_BossScreen18ParseConsistRewardEPv
  0x003c413c _ZN14CFG_BossScreen22ParseCurrentBossDetailEPv
  0x003c5a58 _ZN8CFG_Data11ParseFGDataEPv
  0x003c9d14 _ZN14CFG_ManageInfo15ParseFGDataInfoEPv
  0x003ccfec _ZN13ngHttpHandler17OnReceiveResponseEiPv
  0x003ce12c _ZN8CFaction10ParseBasicEPv
  0x003ce220 _ZN8CFaction5ParseEPvh
  0x003ce6a8 _ZN8CFaction14ParseSkillDataEPv
  0x003ce728 _ZN8CFaction20ParseCitierSkillDataEPv
  0x003ce7f4 _ZN8CFaction16ParseFactionLastEPv
  0x003ceaf0 _ZN8CFaction15ParseDetailInfoEPv
  0x003cedf0 _ZN8CFaction17ParseFactionLimitEPv
  0x003cfabc _ZN20CFactionBattleScreen12ParseBattlesEPv
  0x003d0f4c _ZN24CFactionContributeScreen13ParseResponseEPv
  0x003d2034 _ZN20CFactionCreateScreen12ParseFactionEPv
  0x003d2e98 _ZN19CFactionEnemyScreen12ParseMembersEPv
  0x003d30ba _ZN19CFactionEnemyScreen16ParseFightResultEPvh
  0x003d3128 _ZN19CFactionEnemyScreen10ParseFightEPvh
  0x003d31f0 _ZN19CFactionEnemyScreen21ParseCrossServerFightEPv
  0x003db110 _ZN28CFactionFactoryApproveScreen23ParseFactoryApproveDataEPv
  0x003dc9ee _ZN19CFactionFactoryData11ParseFFDataEPv
  0x003dcb5e _ZN19CFactionFactoryData16ParseFFDataExtraEPv
  0x003dcdb0 _ZN25CFactionFactoryInfoConfig22ParseFactoryInfoConfigEPv
  0x003dd618 _ZN25CFactionFactoryInfoConfig21ParseSelfArsenalsDataEPv
  0x003dd8fc _ZN19CFactoryApproveItem23ParseFactoryApproveItemEPv
  0x003dda8c _ZN19CFactoryProcessItem23ParseFactoryProcessItemEPv
  0x003ddcdc _ZN18CFFBreakRecordItem22ParseFFBreakRecordItemEPv
  0x003de88c _ZN28CFactionFactoryProcessScreen23ParseFactoryProcessDataEPv
  0x003e1c80 _ZN18CFactionInfoScreen12ParseFactionEPv
  0x003e1cb0 _ZN18CFactionInfoScreen19ParseBulletinEventsEPv
  0x003e1dd8 _ZN18CFactionInfoScreen13ParseBulletinEPv
  0x003e2ac4 _ZN25CFactionInformationScreen16ParseFactionInfoEPv
  0x003e2e70 _ZN13CFactionLevel5ParseEPv
  0x003e3ec0 _ZN20CFactionMemberScreen12ParseMembersEPv
  0x003e4a98 _ZN20CFactionMngMbrScreen12ParseMembersEPv
  0x003e5664 _ZN21CFactionRequestScreen13ParseRequestsEPv
  0x003e6a0c _ZN14CFactionScreen13ParseFactionsEPv
  0x003e6aec _ZN14CFactionScreen22ParseFactionBySearchIDEPv
  0x003e6b70 _ZN14CFactionScreen20ParseFactionBySearchEPv
  0x003e7810 _ZN13CFactionSkill5ParseEPv
  0x003e7888 _ZN13CFactionSkill16ParseFactionDataEPv
  0x003e7974 _ZN13CFactionSkill10ParseCostsEPv
  0x003e7a1c _ZN13CFactionSkill15ParseBasicSkillEPv
  0x003e844c _ZN19CFactionSkillScreen17ParseFactionSkillEPv
  0x003ea612 _ZN15CFeedbackScreen11ParseChildsEPv
  0x003eaaec _ZN6CFight5ParseEPv
  0x003eace4 _ZN6CFight8ParseNewEPv
  0x003eb1d0 _ZN6CFight19_ParseMercenaryListEPvP12ngLinkedList
  0x003ecf88 _ZN14CFightSimulate9parseListEPv
  0x003ecfe4 _ZN14CFightSimulate12parseListNewEPv
  0x003ed040 _ZN14CFightSimulate16ParseFighterInfoEPvh
  0x003ed6f4 _ZN14CFightSimulate19ParseFighterInfoNewEPvh
  0x003ee774 _ZN15CFightingScreen13ParseFightersEPv
  0x003f65b8 _ZN13CFriendScreen12ParseFriendsEPv
  0x003f6640 _ZN13CFriendScreen13ParsePendingsEPv
  0x003f9e70 _ZN8CFunGame16ParseMaintenanceEPv
  0x003f9fa8 _ZN8CFunGame15ParseCircleDataEPv
  0x003fa24c _ZN8CFunGame14ParseHeartBeatEPv
  0x003fa800 _ZN8CFunGame16SetUseRc4EncryptEh
  0x003fa80c _ZN8CFunGame15IsUseRC4EncryptEv
  0x003fa9c0 _ZN13CFunctionTool5ParseEPv
  0x003fad48 _ZN5CFund5ParseEPv
  0x00405144 _ZN9CGameData34ParseAppendActivityExtraFromServerEPv
  0x0040a810 _ZN5CGift5ParseEPv
  0x0040ad60 _ZN18CGiftProbabilities5ParseEPv
  0x0040cc70 _ZN6CGoods5ParseEPv
  0x0040ce08 _ZN6CGoods17ParseGoodsOfExtraEPv
  0x0040ce74 _ZN6CGoods13ParseShowcaseEPv
  0x0040cf34 _ZN6CGoods9ParseDealEPv
  0x0040d034 _ZN6CGoods11ParseRewardEPv
  0x0040d134 _ZN6CGoods16ParseYBConsumbleEPv
  0x0041c380 _ZN12CGoodsScreen14ParseWarehouseEPv
  0x0041c424 _ZN12CGoodsScreen17ParseSpecialPriceEPv
  0x0041c43c _ZN12CGoodsScreen8ParseBagEPv
  0x0041c49c _ZN12CGoodsScreen13ParseRareToolEPv
  0x0041f2f8 _ZN12CGoodsScreen30ParseAllGoodsForShowcaseUploadEPv
  0x004203b0 _ZN12CGoodsScreen16ParseYBComsumbleEPv
  0x004266f0 _ZN6CGuard11ParseCGuardEPv
  0x0042734c _ZN12CGuardScreen9ParseListEPv
  0x00429564 _ZN4CGym5ParseEPv
  0x00429674 _ZN4CGym19ParseCurServiceDataEPv
  0x00429b68 _ZN11CGymService15ParseConfigDataEPv
  0x00429c74 _ZN15CGymServiceCost20ParseServiceCostDataEPv
  0x0042bbc8 _ZN10CGymScreen17ParseEnterGymInfoEPv
  0x0042d340 _ZN10CGymScreen13ParseResponseEPv
  0x00434d50 _ZN17CHG_CaptureScreen15ParseSearchInfoEPv
  0x00435434 _ZN17CHG_CaptureScreen18ParseAttackMessageEPv
  0x00435fbc _ZN17CHG_CaptureScreen19__ParsePlayerStatusEPv
  0x0043834c _ZN17CHG_CaptureScreen11ParseSpoilsEPv
  0x00438f9c _ZN9CHGConfig13ParseHGConfigEPv
  0x00439858 _ZN15CHG_ConfigMnger12ParseMessageEPvh
  0x004398c0 _ZN15CHG_ConfigMnger18ParseExistToolInfoEPv
  0x0043deb0 _ZN20CHG_SampleShowScreen15ParseSampleDataEPv
  0x0043f720 _ZN15CHG_StoreScreen16ParseHGStoreDataEPv
  0x004410c0 _ZN17CHG_TransToolData20ParseHGTransToolDataEPv
  0x0044118c _ZN17CHG_TransToolData11ParseImpartEPv
  0x00441534 _ZN16CHG_HuntToolData19ParseHGHuntToolDataEPv
  0x004415d8 _ZN16CHG_HuntToolData11ParseImpartEPv
  0x00441d28 _ZN14CHG_AnimalData17ParseHGAnimalDataEPv
  0x00443664 _ZN10CHG_Spoils11ParseSpoilsEPv
  0x00445454 _ZN19CHG_WarehouseScreen16ParsePackBoxInfoEPv
  0x004457a8 _ZN19CHG_WarehouseScreen18ParseTransToolListEPv
  0x00445988 _ZN19CHG_WarehouseScreen17ParseHuntToolListEPv
  0x00447c84 _ZN13CHelperScreen9ParseListEPv
  0x00448f2c _ZN15CHospitalScreen12ParsePatientEPv
  0x004498d8 _ZN6CHouse5ParseEPv
  0x0044c5dc _ZN19CHrMarketCateScreen18ParseDoJobResponseEPv
  0x0044c694 _ZN19CHrMarketCateScreen22ParseGetSaleryResponseEPv
  0x00459660 _ZN11CHttpClient13FinishMissionEP17ngNetworkAPIMaker
  0x004596c4 _ZN11CHttpClient13UpdateMissionEP17ngNetworkAPIMaker
  0x00467264 _ZN11CHttpClient13ParseResponseExPv
  0x004678d4 _ZN11CHttpClient10ParseErrorEPKcS1_Pv
  0x00467fc0 _ZN19ngHttpClientFactory16CreateHttpClientEv
  0x00468d00 _ZN7CImpart5ParseEPv
  0x00468ef8 _ZN7CImpart11ParseImpartEPv
  0x0046add0 _ZN7CImpart12ParseGymTypeEPv
  0x0046ae50 _ZN7CImpart19ParseGymServiceCostEPv
  0x0046aedc _ZN7CImpart8ParseJobEPv
  0x0046af5c _ZN7CImpart15ParseWeaponTypeEPv
  0x0046b0b0 _ZN7CImpart14ParseArmorTypeEPv
  0x0046b1fc _ZN7CImpart13ParseCBWeaponEPv
  0x0046b27c _ZN7CImpart19ParseCollectionTypeEPv
  0x0046b314 _ZN7CImpart13ParseDishTypeEPv
  0x0046b38c _ZN7CImpart17ParseMedicineTypeEPv
  0x0046b424 _ZN7CImpart13ParseDrugTypeEPv
  0x0046b4bc _ZN7CImpart17ParsePropertyTypeEPv
  0x0046b53c _ZN7CImpart14ParseSlaveTypeEPv
  0x0046b5bc _ZN7CImpart19ParseDecorationTypeEPv
  0x0046b63c _ZN7CImpart16ParseCompanyTypeEPv
  0x0046b640 _ZN7CImpart15ParseSpecialityEPv
  0x0046b6d8 _ZN7CImpart11ParseCrimesEPv
  0x0046b750 _ZN7CImpart13ParseFuncToolEPv
  0x0046b7fc _ZN7CImpart18ParseStorePackagesEPv
  0x0046b9e0 _ZN7CImpart16ParseRMBPackagesEPvh
  0x0046babc _ZN7CImpart21ParseAchievementSkillEPv
  0x0046bb3c _ZN7CImpart18ParseFactionSkillsEPv
  0x0046bbbc _ZN7CImpart12ParseVariousEPv
  0x0046bc68 _ZN7CImpart18ParseGangCreatNeedEPv
  0x0046bcc0 _ZN7CImpart17ParsePseudoTargetEPv
  0x0046bd40 _ZN7CImpart18ParseInviteRewardsEPv
  0x0046befc _ZN7CImpart15ParseLoginGiftsEPv
  0x0046c060 _ZN7CImpart21ParseFactionSkillLimtEPv
  0x0046c114 _ZN7CImpart18ParseVipSkillTypesEPv
  0x0046c1b0 _ZN7CImpart16ParseMountsTypesEPv
  0x0046c268 _ZN7CImpart9ParseGiftEPv
  0x0046c2e8 _ZN7CImpart20ParseGiftPackDetailsEPv
  0x0046c3f4 _ZN7CImpart18ParsePoint21MeddleEPv
  0x0046c4a0 _ZN7CImpart20ParseAttributeLimitsEPv
  0x0046c554 _ZN7CImpart13ParseSubjectsEPv
  0x0046c5d0 _ZN7CImpart27ParseGoodsGiftProbabilitiesEPv
  0x0046c6c0 _ZN7CImpart27ParseExchangeAmountAndRatioEPv
  0x0046c740 _ZN7CImpart18ParseMentoringInfoEPv
  0x0046c8e8 _ZN7CImpart22ParseDungeonConditionsEPv
  0x0046c9f4 _ZN7CImpart18ParseDungeonRewardEPv
  0x0046cb94 _ZN7CImpart18ParseDungeonDetailEPv
  0x0046ccf4 _ZN7CImpart20ParseDungeonConstantEPv
  0x0046ce94 _ZN7CImpart19ParseLadderConstantEPv
  0x0046d0cc _ZN7CImpart20ParseStrengthenStoneEPv
  0x0046d15c _ZN7CImpart23ParseDungeonActionRatioEPv
  0x0046d1dc _ZN7CImpart14ParseAwardListEPv
  0x0046d24c _ZN7CImpart9ParseFundEPv
  0x0046d2d0 _ZN7CImpart16ParseShowBgTypesEPv
  0x0046d350 _ZN7CImpart20ParseAuctionConstantEPv
  0x0046d404 _ZN7CImpart19ParseVolunteerAuthsEPv
  0x0046d504 _ZN7CImpart24ParseCrimeTypeRewardTypeEPv
  0x0046d57c _ZN7CImpart21ParseMilitiaAwardListEPv
  0x0046d664 _ZN7CImpart12ParseMilitiaEPv
  0x0046d6f4 _ZN7CImpart22ParseBossDiffCultyInfoEPv
  0x0046d8ac _ZN7CImpart16ParseBossFixInfoEPv
  0x0046d944 _ZN7CImpart12ParseYBItemsEPv
  0x0046d9c4 _ZN7CImpart20ParseKingAppellationEPv
  0x0046da44 _ZN7CImpart26ParseKingAppellationEffectEPv
  0x0046db1c _ZN7CImpart17ParsePersonActiveEPv
  0x0046dc08 _ZN7CImpart15ParseFFBossInfoEPv
  0x0046dc88 _ZN7CImpart17ParsePEconfigInfoEPv
  0x0046dd4c _ZN7CImpart19ParseCrossWarConfigEPv
  0x0046ddfc _ZN7CImpart20ParsePayssionItemIdxEPv
  0x0046de4c _ZN7CImpart25ParseFactoryGoodsDataInfoEPv
  0x0046dedc _ZN7CImpart25ParseFactoryDataExtraInfoEPv
  0x0046df6c _ZN7CImpart17ParseFGConfigInfoEPv
  0x0046e094 _ZN7CImpart17ParseFGAwakenInfoEPv
  0x0046e124 _ZN7CImpart17ParseClientConfigEPv
  0x0046e454 _ZN7CImpart12ParseRaceCarEPv
  0x0046e4dc _ZN7CImpart13ParseRaceCoptEPv
  0x0046e55a _ZN7CImpart19ParseHuntGoodsTypesEPv
  0x0046e5e0 _ZN7CImpart12ParseHuntCarEPv
  0x0046e666 _ZN7CImpart13ParseHuntToolEPv
  0x0046e6ec _ZN7CImpart17ParseHuntFoodTypeEPv
  0x0046e780 _ZN7CImpart30ParseHeartBeatExceptionActionsEPv
  0x0046e7d0 _ZN7CImpart19ParseMaxPlayerLevelEPv
  0x0046e800 _ZN7CImpart16ParseFuncControlEPv
  0x0046e830 _ZN7CImpart17ParseDailyLogTypeEPv
  0x0046e940 _ZN7CImpart21ParseTurntableOpeningEPv
  0x0046e9a0 _ZN7CImpart14ParseTurnTabelEPv
  0x0046ee2e _ZN7CImpart15ParseGymServiceEPv
  0x0046f3ac _ZN7CImpart19ParseStrengthenNeedEPvii
  0x00478604 _ZN4CJob5ParseEPv
  0x0047881c _ZN8CJobType5ParseEPv
  0x00479314 _ZN20CKingAppellationData24ParseKingAppellationDataEPv
  0x004796e8 _ZN16CKingAppellation20ParseAppellationListEPv
  0x004798a0 _ZN18CAppellationPlayer22ParseAppellationPlayerEPv
  0x00479ed8 _ZN24CPlayerAppellationHelper22ParsePlayerAppellationEPv
  0x0047a164 _ZN9CKingInfo13ParseKingInfoEPvi
  0x0047bbb4 _ZN22CKingAppellationScreen9ParseListEPv
  0x0047bc56 _ZN22CKingAppellationScreen11ParseResultEPv
  0x0047dbd8 _ZN23CKingBeatSeleTeamScreen9ParseSelfEPv
  0x0047ea68 _ZN23CKingBeatSeleTeamScreen9ParseCorpEPviRi
  0x0047fdac _ZN9CKFConfig11ParseConfigEPv
  0x00480290 _ZN18CCKJsonParseHelper16ParseCustomArrayEPvRiS1_i
  0x00480304 _ZN9CSeatTick13ParseSeatTickEPv
  0x00480388 _ZN11CComboScore15ParseComboScoreEPv
  0x004803dc _ZN20CVoteRankRewardsInfo20ParseRankRewardsInfoEPv
  0x004805e4 _ZN7CKFTeam13ParseKingTeamEPv
  0x0048081c _ZN9CKFPlayer11ParsePlayerEPv
  0x00480c68 _ZN15CKingFightMnger15ParseDetailInfoEPv
  0x00480ee8 _ZN15CKingFightMnger18ParseHeartBeatInfoEPv
  0x00484ce8 _ZN20CKingRightInfoScreen18ParseKingRightInfoEPv
  0x0048649c _ZN17CKingWalletScreen9ParseInfoEPv
  0x00486928 _ZN17CKingWalletScreen9ParseItemEPv
  0x0048b02c _ZN18CLadderEventScreen14ParseEventListEPv
  0x0048b234 _ZN18CLadderEventScreen10ParseFightEPvh
  0x0048d7b0 _ZN13CLadderScreen11ParseMyInfoEPv
  0x0048d8f0 _ZN13CLadderScreen16ParseFighterInfoEPv
  0x0048d964 _ZN13CLadderScreen10ParseFightEPvh
  0x0048da0c _ZN13CLadderScreen11ParseRewardEPv
  0x00490418 _ZN14CLoadingScreen24ParseLastLoginPlayerInfoEPv
  0x00493668 _ZN17CLookBattleScreen13ParseLookCorpEPviRi
  0x004a711c _ZN13CMS_MineClass15ParseConfigDataEPv
  0x004a9c7c _ZN16CMS_MyMineScreen20ParseOccupyMerceanryEPv
  0x004acbc4 _ZN11CMS_YbClass5ParseEPv
  0x004acd04 _ZN11CMS_YbClass16ParseUpgradeNeedEPKc
  0x004b7e28 _ZN11CMainScreen14ParseBeatTimesEPv
  0x004b7f18 _ZN11CMainScreen16ParseSWEnterDataEPv
  0x004b825c _ZN11CMainScreen13ParseInfoDataEPv
  0x004bd690 _ZN11CMainScreen14ParseRoundDataEPv
  0x004bd860 _ZN11CMainScreen17ParseCellListDataEPvP12ngLinkedList
  0x004bf384 _ZN11CMainScreen27ParseBuildOccupyScoreChangeEPv
  0x004bf440 _ZN11CMainScreen25ParseBuildMemberNumChangeEPv
  0x004bf4fc _ZN11CMainScreen24ParseGangMemberNumChangeEPv
  0x004bf5b0 _ZN11CMainScreen24ParseGangOccupyNumChangeEPv
  0x004bf664 _ZN11CMainScreen23ParseGangWinTimesChangeEPv
  0x004bf718 _ZN11CMainScreen24ParseGangFailTimesChangeEPv
  0x004bf7cc _ZN11CMainScreen20ParseGangScoreChangeEPv
  0x004bf8a4 _ZN11CMainScreen20ParseSWTCPConnetDataEPv
  0x004bfaec _ZN11CMainScreen16ParseSWGangsDataEPvh
  0x004bfe38 _ZN11CMainScreen15ParseGangChangeEPv
  0x004c0024 _ZN11CMainScreen18ParseBombBuildDataEPv
  0x004c0098 _ZN11CMainScreen16ParseSWBuildDataEPv
  0x004c19cc _ZN20CMaritalStatusScreen14ParseRequestedEPvi
  0x004c1bb4 _ZN20CMaritalStatusScreen11ParseSpouseEPv
  0x004c2fe8 _ZN17CMarketCateScreen16ParseGoodsAmountEPv
  0x004c3f3c _ZN13CMarketScreen16ParseGoodsAmountEPv
  0x004c5610 _ZN15CMarriageScreen12ParseMarrierEPv
  0x004c6d26 _ZN21CMasterRelationScreen9ParseListEPv
  0x004c7f62 _ZN13CMasterScreen9ParseListEPv
  0x004c9f74 _ZN10CMercenary15GetTendAndParseEv
  0x004ca0bc _ZN10CMercenary11ParseUpStarEPv
  0x004ca0f0 _ZN10CMercenary5ParseEPv
  0x004ca53c _ZN10CMercenary10ParseSkillEPv
  0x004ca668 _ZN10CMercenary9ParseTendEi
  0x004ca68c _ZN10CMercenary12ParseUpSkillEPv
  0x004caf78 _ZN14CMercenaryChip5ParseEPv
  0x004cb370 _ZN14CMercenaryStar5ParseEPv
  0x004cb3f0 _ZN22CMercenaryUpStarFactor5ParseEPv
  0x004d0610 _ZN16CMercenaryConfig5ParseEPv
  0x004dbb48 _ZN15CMercenaryMnger27ParseMercenaryAndConfigDataEPv
  0x004dc078 _ZN15CMercenaryMnger18ParseMercenaryChipEPv
  0x004dc10c _ZN15CMercenaryMnger19ParsePitOccupyLimitEPv
  0x004dc18c _ZN15CMercenaryMnger17ParseAddMercenaryEPv
  0x004dc1d8 _ZN15CMercenaryMnger24ParsePlayerMercenaryInfoEPv
  0x004dc428 _ZN15CMercenaryMnger16ParseYbGoldTimesEPv
  0x004dd3e0 _ZN15CMercenaryMnger22ParseAddLearningHelperEPv
  0x004dda66 _ZN18CMercenaryProperty5ParseEPv
  0x004ddd5c _ZN22CMercenaryPropertyData5ParseEPv
  0x004e7db0 _ZN8CMessage5ParseEPv
  0x004e839c _ZN8CMilitia5ParseEPv
  0x004e8b5c _ZN14CMilitiaScreen18ParseMilitiaStatusEPvS0_
  0x004e9ca0 _ZN14CMineBidScreen9ParseListEPv
  0x004e9ce0 _ZN14CMineBidScreen5ParseEPv
  0x004ed60c _ZN6CMount5ParseEPv
  0x004eeab0 _ZN20CNCW_ChallengeScreen12ParseCityWarEPv
  0x004eec54 _ZN14CNCW_CorpsData5ParseEPv
  0x004eed40 _ZN17CNCW_DiscountData5ParseEPv
  0x004f5610 _ZN18CNationalBidScreen5ParseEPv
  0x004f66b4 _ZN21CNewLoginRewardScreen17ParseNewLoginDataEPv
  0x004f6c00 _ZN21CNewLoginRewardScreen13ParseListDataEPvh
  0x00503b6c _ZN16CNewspaperScreen9ParseNewsEPv
  0x00503be8 _ZN16CNewspaperScreen14ParseDailyNewsEPv
  0x00503db0 _ZN16CNewspaperScreen13ParseFairInfoEPv
  0x00503f30 _ZN16CNewspaperScreen14ParseAdvertiseEPv
  0x00504088 _ZN16CNewspaperScreen14ParseAwardInfoEPv
  0x0050a27c _ZN14CPersActSubmit7GoParseEP9lua_State
  0x0050a71c _ZN14CPersActSubmit15ParseRewardDataEPv
  0x0050acdc _ZN26CActiveChallengeConfigData22ParseRewardsConfigInfoEPv
  0x0050ad9c _ZN26CActiveChallengeConfigData22ParseRewardsDetailInfoEPv
  0x0050c85c _ZN21CPersonalExchangeData5ParseEPv
  0x0050d0f8 _ZN27CPersonalExchangeListScreen9ParseListEPv
  0x0050ef74 _ZN23CPersonalExchangeScreen17ParseExchangeInfoEPv
  0x0051313c _ZN7CPlayer13ParseSubjectsEPv
  0x00513228 _ZN7CPlayer16ParseActivityNewEPv
  0x00513664 _ZN7CPlayer17ParseArchivedDataEP10ngStringV2
  0x00513e70 _ZN7CPlayer14ParseSingleMsgEPv
  0x00513ebc _ZN7CPlayer13ParseMessagesEPv
  0x005140bc _ZN7CPlayer5ParseEPv
  0x005160d4 _ZN7CPlayer26ParseAchievementSkillLevelEPv
  0x00516180 _ZN7CPlayer10ParseGoodsEPv
  0x00516194 _ZN7CPlayer9ParseBagsEPvi
  0x005161b4 _ZN7CPlayer16ParseCrimeSkillsEPv
  0x00516254 _ZN7CPlayer11ParseStatusEPvh
  0x00516478 _ZN7CPlayer10ParseExtraEPv
  0x00516ad8 _ZN7CPlayer20ParseJobCategoryInfoEPv
  0x00516b90 _ZN7CPlayer17ParseFactionTitleEPvh
  0x00516bdc _ZN7CPlayer12ParseFactionEPvh
  0x00516c3e _ZN7CPlayer11ParseHousesEPv
  0x00516cb0 _ZN7CPlayer14ParseLiveHouseEPv
  0x00516cd0 _ZN7CPlayer16ParseBankAccountEPv
  0x00516d0c _ZN7CPlayer13ParseEmployeeEPv
  0x00516dc8 _ZN7CPlayer21ParseRelationRequestsEPv
  0x00516e2c _ZN7CPlayer17ParseCityRelationEPv
  0x00516eb4 _ZN7CPlayer21ParseActivityGiftNumsEPv
  0x00516f50 _ZN7CPlayer15ParseCityOccupyEPv
  0x0051710c _ZN7CPlayer20ParseCrossCityOccupyEPv
  0x005173ec _ZN7CPlayer13ParseFuncTagsEPv
  0x00517518 _ZN7CPlayer13ParseDrugInfoEPv
  0x005176a8 _ZN7CPlayer16ParseDungeonInfoEPvS0_
  0x005177ec _ZN7CPlayer11ParseFFBossEPv
  0x00517848 _ZN7CPlayer17ParseIsEatRedBullEPv
  0x00517968 _ZN7CPlayer13ParseHuntInfoEPv
  0x00517c5c _ZN7CPlayer17ParseHuntFoodInfoEPv
  0x00517d68 _ZN7CPlayer23ParseExclusiveSpreeInfoEv
  0x00517e34 _ZN7CPlayer23ParseQualityPackageInfoEv
  0x00517f00 _ZN7CPlayer15ParseWeekRankIdE10ngStringV2
  0x00518328 _ZN7CPlayer15ParseHeartBeartEPv
  0x005197b4 _ZN7CPlayer11ParseNewMsgEPv
  0x00519af0 _ZN7CPlayer17ParseHoldemInviteEPv
  0x00519db4 _ZN7CPlayer14ParseBasicInfoEPv
  0x00519f30 _ZN7CPlayer17ParseRegisterInfoEPv
  0x00519fa0 _ZN7CPlayer12ParseVIPInfoEPv
  0x0051c1b8 _ZN7CPlayer17ParseCooperateAddEPvh
  0x0051c2a8 _ZN7CPlayer20ParseNormalDropGoodsEPv
  0x0051c804 _ZN7CPlayer21RefreshParseLockItemsEPv
  0x0051e1c8 _ZN13CPrisonScreen17ParsePrisonerListEPv
  0x0051ecac _ZN8CProduct15ParseCollectionEPv
  0x0051edb0 _ZN8CProduct9ParseDishEPv
  0x0051ef68 _ZN8CProduct12ParseSpecialEPv
  0x0051f030 _ZN8CProduct15ParseSpecialBuyEPv
  0x0051f0f0 _ZN8CProduct16ParseSpecialSellEPv
  0x0051f308 _ZN8CProduct14ParseHuntFoodsEPv
  0x0051f67c _ZN9CProperty5ParseEPv
  0x0052034c _ZN19CPropertyCateScreen5ParseEPv
  0x00525b88 _ZN19CPropertyListScreen15ParseNumberDataEPv
  0x005267e4 _ZN13CPseudoTarget5ParseEPv
  0x0053084c _ZN22CRG_CarWarehouseScreen12ParseCarListEPv
  0x00530f5c _ZN22CRG_CarWarehouseScreen13ParseShowcaseEPv
  0x00536828 _ZN22CRG_ExchangeSkinScreen13ParseSkinDataEPv
  0x0053adf0 _ZN12CMatchPlayer16ParseMatchPlayerEPv
  0x0053b910 _ZN25CRG_PersonalMapListScreen20ParsePlayerMatchDataEPv
  0x0053bc6c _ZN25CRG_PersonalMapListScreen21ParseSearchResultDataEPv
  0x0053f7c8 _ZN15CRG_RaceMapData11ParseLengthE10ngStringV2
  0x00541aac _ZN14CRaceCoreMnger13ParseGameDataEPv
  0x005435d0 _ZN12CPopMsgMnger14ParseAddNewMsgEPvP12ngLinkedListh
  0x00543ab4 _ZN14CRaceCoreMnger18ParseAthleticsDataEPv
  0x00543b50 _ZN14CRaceCoreMnger13ParseRoomInfoEPvh
  0x00543bf0 _ZN14CRaceCoreMnger13ParseMatchLogEPv
  0x005440fc _ZN14CRaceCoreMnger15ParseMemberDataEPv
  0x0054495c _ZN14CRaceCoreMnger12ParseMapdataEv
  0x00546de4 _ZN24CRaceDeliverPrizeHandler12ParseConnectEPv
  0x00549db8 _ZN15CRG_StoreScreen20ParseStoreRandomListEPv
  0x0054a108 _ZN15CRG_StoreScreen13ParseStoreNumEPv
  0x0054af38 _ZN7CRG_car5ParseEPv
  0x0054b1a4 _ZN7CRG_car13ParseShowcaseEPv
  0x0054bc0a _ZN14CRG_car_native11ParseImpartEPv
  0x0054c218 _ZN13CRG_component5ParseEPv
  0x0054c340 _ZN13CRG_component11ParseImpartEPv
  0x0054d66c _ZN15CRankCateScreen22ParseCarRaceServerDataEPv
  0x0054d9e0 _ZN15CRankCateScreen11ParsePlayerEPv
  0x0054daa4 _ZN15CRankCateScreen16ParseFactionListEPv
  0x0054db14 _ZN15CRankCateScreen15ParsePlayerListEPv
  0x0054fb18 _ZN23CReceiveRedPacketScreen22ParseGrabRedPacketInfoEPv
  0x0054fd24 _ZN23CReceiveRedPacketScreen24ParseGrabRedPacketRecordEPv
  0x0054ff0c _ZN18CKingTakeRedPacket18ParseTakeRedPacketEPv
  0x00550a58 _ZN15CRechargeScreen15ParseRewardInfoEPv
  0x00552358 _ZN13CRemarkSetter25ParseRemarkFromCCiterListEP12ngLinkedList
  0x005523b8 _ZN13CRemarkSetter28ParseAndStoreFromCCitierListEP12ngLinkedList
  0x0055384a _ZN18CActiveNewGiftData15ParseActiveDataEPv
  0x00553ae8 _ZN13CRewardLadder10ParseGoodsEPv
  0x00554814 _ZN13CRewardScreen11ParseWantedEPv
  0x0055acec _ZN20CSW_EnterBuildScreen18ParseBuildDataInfoEPv
  0x0055ae18 _ZN20CSW_EnterBuildScreen16ParseFightResultEPv
  0x0055ba04 _ZN20CSW_EnterBuildScreen19ParseBuildAddMemberEPv
  0x0055bac4 _ZN20CSW_EnterBuildScreen22ParseBuildReduceMemberEPv
  0x0055bb1c _ZN20CSW_EnterBuildScreen27ParseBuildOccupyScoreChangeEPv
  0x0055e058 _ZN15CSW_EntryScreen15ParseStatusInfoEPv
  0x0055e09c _ZN15CSW_EntryScreen14ParseRoundDataEPv
  0x0055e2a4 _ZN15CSW_EntryScreen13ParseAirlinesEPv
  0x0055eb9c _ZN15CSW_EntryScreen17ParseCellListDataEPvP12ngLinkedList
  0x00561510 _ZN22CSW_JoinCorpListScreen13ParseJoinListEPv
  0x005647dc _ZN21CSW_MatchResultScreen19ParseWinFactionDataEPv
  0x00566ed8 _ZN21CSW_MatchStatusScreen15ParseStatusInfoEPv
  0x00567be4 _ZN21CSW_MatchStatusScreen14ParseRoundDataEPv
  0x00568c54 _ZN16CSW_ReviveScreen17ParsePersonalListEPv
  0x00568e76 _ZN16CSW_ReviveScreen21ParseSingleMemberDataEPv
  0x005690cc _ZN16CSW_ReviveScreen19ParseBuildAddMemberEPv
  0x005690fc _ZN16CSW_ReviveScreen22ParseBuildReduceMemberEPv
  0x005691a4 _ZN16CSW_ReviveScreen25ParseMemberPositionChangeEPv
  0x00569268 _ZN16CSW_ReviveScreen23ParseMemberStatusChangeEPv
  0x0056932c _ZN16CSW_ReviveScreen25ParseMemberWinTimesChangeEPv
  0x005693f0 _ZN16CSW_ReviveScreen26ParseMemberFailTimesChangeEPv
  0x0056b278 _ZN13CSchoolScreen12ParseSubjectEPv
  0x0056bf0c _ZN19CSearchResultScreen16ParseCiterResultEPv
  0x0056de78 _ZN7CServer5ParseEPv
  0x0056eb4c _ZN12CServerMnger15ParseServerListEPv
  0x0056ee8c _ZN12CServerMnger14ParseCkSumDataEPv
  0x0056ee92 _ZN12CServerMnger18ParseCrossPlatInfoEPv
  0x0056f19a _ZN12CServerMnger13ParseRoleListEPv
  0x00570cd6 _ZN9CShowcase5ParseEPv
  0x0057115c _ZN12CCarShowcase5ParseEPv
  0x005712e0 _ZN12CCarShowcase10ParseInnerEPv
  0x00571500 _ZN17CWindowOrderMnger10ParseOrderEPv
  0x00571880 _ZN11CShowcaseBg5ParseEPv
  0x0057191c _ZN11CShowcaseBg11ParseImpartEPv
  0x00576854 _ZN6CSlave5ParseEPv
  0x0057c9e0 _ZN13CStorePackage5ParseEPv
  0x0057cc38 _ZN13CStorePackage10ParseBucksEPvh
  0x00580938 _ZN13CStorePackage26ParseRandomGiftByTypeAndIdEii
  0x00582b70 _ZN16CStrengthenEquip5ParseEPv
  0x0058326c _ZN16CStrengthenMnger22ParseUpgradeConditionsEPv
  0x005898ec _ZN16CStrengthenStone5ParseEPv
  0x00589fa8 _ZN8CSubject5ParseEPv
  0x0058e338 _ZN12CTaobaoStore5ParseEPv
  0x00590114 _ZN21CThanksgivingV2Screen15ParseGiftNumberEPv
  0x00592fb4 _ZN10CTopScreen8ParseMsgEPv
  0x0059318c _ZN10CTopScreen11ParseSysMsgEPv
  0x00594d10 _ZN17CTournamentScreen9ParseRankEPv
  0x00595690 _ZN12CTowerPlayer5ParseEPv
  0x00595aec _ZN12CTowerPlayer17ParseBuyTimesCostEPv
  0x00595bd0 _ZN12CTowerPlayer19ParseBossRangeTypesEPv
  0x00595cd8 _ZN12CTowerPlayer16ParseRewardLayerEPv
  0x00595d2c _ZN12CTowerPlayer16ParseFightResultEPv
  0x00595e04 _ZN12CTowerPlayer12ParseInspireEPv
  0x00595ed4 _ZN12CTowerPlayer9ParseCureEPv
  0x00595f2c _ZN12CTowerPlayer19ParseTransAttributeEPv
  0x00595fb0 _ZN12CTowerPlayer14ParseBuyTicketEPv
  0x005991cc _ZN21CTutorialMapIndicator13ParseLuaTableEv
  0x00599310 _ZN20CTutorialUIIndicator13ParseLuaTableEv
  0x0059949c _ZN23CTutorialTableIndicator13ParseLuaTableEv
  0x0059d9e8 _ZN8CUpgrade13ParseVersionsEP12ngByteBuffer
  0x0059eac8 _ZN16CValentineScreen9ParseListEPv
  0x0059ff68 _ZN24CVerifyDeviceChangeMnger18ParseServerCommandEPv
  0x005a408c _ZN5CVote5ParseEPvP21CVoteFeedbackDelegate
  0x005a6d28 _ZN11CVoteScreen10ParseVotesEPvRi
  0x005a81a4 _ZN23CVoteSearchResultScreen17ParseSearchResultEPv
  0x005a8780 _ZN19CVoteStatisticsData5ParseEPv
  0x005a91c8 _ZN21CVoteStatisticsScreen20ParseVotesStatisticsEPv
  0x005a9860 _ZN10CWareHouse5ParseEPv
  0x005a99bc _ZN10CWareHouse18ParseExchangeGoodsEPv
  0x005a9a98 _ZN10CWareHouse17ParseSpecialPriceEPv
  0x005aa480 _ZN15CItemLockHelper16ParseLockedGoodsEPv
  0x005aa7f4 _ZN7CWeapon5ParseEPv
  0x005ab280 _ZN16CWeekAwardScreen13ParseRankListEPv
  0x005ab350 _ZN16CWeekAwardScreen19ParseAwardGoodsListEPv
  0x005ab924 _ZN13CYBConsumable9ParseDataEPv
  0x005abc80 _ZN8CYBStore11ParseStallsEPv
  0x005abd34 _ZN8CYBStore10ParseStallEPv
  0x005abe8c _ZN8CYBStore15ParseStockGoodsEPv
  0x005abe94 _ZN8CYBStore15ParseStoreLevelEPv
  0x005b048c _ZN11CConnection24ParseLogicConnectionRecvEPhih
  0x005b0848 _ZN15CMsgBroadcastor18DecodeAndBroadcastEPvih
  0x005b1470 _ZN10ngRC4MngerC2Ev
  0x005b1470 _ZN10ngRC4MngerC1Ev
  0x005b1498 _ZN10ngRC4Mnger7InitKeyEv
  0x005b156c _ZN10ngRC4MngerD2Ev
  0x005b156c _ZN10ngRC4MngerD1Ev
  0x005b156e _ZN10ngRC4MngerD0Ev
  0x005b1578 _ZN10ngRC4Mnger11GetInstanceEv
  0x005b15cc _ZN10ngRC4Mnger15ReleaseInstanceEPv
  0x005b15fc _ZN10ngRC4Mnger18EncryptKpAliveDataEP12ngByteBufferS1_
  0x005b16c0 _ZN10ngRC4Mnger5CryptEPKhPhy
  0x005b17bc _ZN10ngRC4Mnger18DecryptKpAliveDataEP12ngByteBufferS1_
  0x005b17d2 _ZN10ngRC4Mnger18EncryptKpAliveDataEP12ngByteBuffer
  0x005b17e2 _ZN10ngRC4Mnger18DecryptKpAliveDataEP12ngByteBuffer
  0x005b17f6 _ZN10ngRC4Mnger13PrintByteDataEPhy
  0x005b17f8 _ZN10ngRC4Mnger13PrintByteDataEP12ngByteBuffer
  0x005b1808 _ZN10ngRC4Mnger27TransStringByteToByteBufferEP10ngStringV2P12ngByteBuffer
  0x005b3ba2 Java_com_anansimobile_extra_platform_facebookshare_FacebookShare_onLoginSuccess
  0x005b3c64 Java_com_anansimobile_extra_platform_facebookshare_FacebookShare_onLoginError
  0x005b3cac Java_com_anansimobile_extra_platform_facebookshare_FacebookShare_onLoginCanceled
  0x005b3cf4 Java_com_anansimobile_extra_platform_facebookshare_FacebookShare_onLogoutSuccess
  0x005c60a2 _ZN11ngJsonArray5ParseEP11json_object
  0x005c6284 _ZN10ngJsonHash5ParseEP11json_object
  0x005c65b0 _ZN12ngJsonDouble5ParseEP11json_object
  0x005c65ea _ZN13ngJsonInteger5ParseEP11json_object
  0x005c6624 _ZN13ngJsonBoolean5ParseEP11json_object
  0x005c665e _ZN10ngJsonNull5ParseEP11json_object
  0x005c6754 _ZN12ngJsonString5ParseEP11json_object
  0x005c6a28 _ZN10ngJsonRoot7SetTypeE10_JSON_TYPE
  0x005c6a48 _ZN10ngJsonRoot5ParseEPKc
  0x005c6ac6 json_object_get
  0x005c6ad2 json_object_put
  0x005c6afc json_object_is_type
  0x005c6b18 json_object_get_type
  0x005c6b24 json_object_set_serializer
  0x005c7094 json_object_to_json_string_ext
  0x005c70e4 json_object_to_json_string
  0x005c70f0 json_object_new_object
  0x005c7194 json_object_get_object
  0x005c71a6 json_object_object_add
  0x005c71e0 json_object_object_length
  0x005c71ea json_object_object_get
  0x005c7214 json_object_object_get_ex
  0x005c723e json_object_object_del
  0x005c7248 json_object_new_boolean
  0x005c7284 json_object_get_boolean
  0x005c72f0 json_object_new_int
  0x005c7334 json_object_get_int
  0x005c73ec json_object_new_int64
  0x005c7430 json_object_get_int64
  0x005c74a8 json_object_new_double
  0x005c74ec json_object_new_double_s
  0x005c758c json_object_userdata_to_json_string
  0x005c75a8 json_object_free_userdata
  0x005c75b4 json_object_get_double
  0x005c768c json_object_new_string
  0x005c7714 json_object_new_string_len
  0x005c7790 json_object_get_string
  0x005c77ae json_object_get_string_len
  0x005c77c0 json_object_new_array
  0x005c7828 json_object_get_array
  0x005c783a json_object_array_sort
  0x005c7844 json_object_array_length
  0x005c784e json_object_array_add
  0x005c7858 json_object_array_put_idx
  0x005c7862 json_object_array_get_idx
  0x005c7a28 json_tokener_error_desc
  0x005c7a58 json_tokener_get_error
  0x005c7a5c json_tokener_new_ex
  0x005c7a9a json_tokener_reset
  0x005c7ac0 json_tokener_new
  0x005c7aca json_tokener_free
  0x005c7b28 json_tokener_parse
  0x005c7b36 json_tokener_parse_verbose
  0x005c7b7c json_tokener_parse_ex
  0x005c90a8 json_tokener_set_flags
  0x005c90ac json_object_from_file
  0x005c91e8 json_object_to_file_ext
  0x005c92b8 json_object_to_file
  0x005c92c4 json_parse_double
  0x005c92ec json_parse_int64
  0x005c9544 json_type_to_name
  0x005c9d1c json_c_get_random_seed
  0x005c9dd8 _ZN16ngHttpDownloaderC1Ev
  0x005c9dd8 _ZN16ngHttpDownloaderC2Ev
  0x005c9e14 _ZN16ngHttpDownloaderD1Ev
  0x005c9e14 _ZN16ngHttpDownloaderD2Ev
  0x005c9e60 _ZN16ngHttpDownloaderD0Ev
  0x005c9e6c _ZN16ngHttpDownloader15InitHttpSessionEv
  0x005c9e8e _ZN16ngHttpDownloader21StartWithExistSessionER10ngStringV2
  0x005c9e9c _ZN16ngHttpDownloader5StartER10ngStringV2
  0x005c9ed4 _ZN16ngHttpDownloader7StartAtER10ngStringV2i
  0x005c9f64 _ZN16ngHttpDownloader9OnConnectEv
  0x005c9f68 _ZN16ngHttpDownloader10OnResponseEP20ngConnectionResponse
  0x005ca010 _ZN16ngHttpDownloader11GetFileNameEv
  0x005ca038 _ZN16ngHttpDownloader6OnDataEPhj
  0x005ca0bc _ZN16ngHttpDownloader11OnErrorStopE19NG_CONNECTION_ERROR
  0x005ca0e0 _ZN16ngHttpDownloader8OnFinishEv
  0x005ca194 _ZN17ngHttpTransporterC1Ei
  0x005ca194 _ZN17ngHttpTransporterC2Ei
  0x005ca1dc _ZN17ngHttpTransporterD2Ev
  0x005ca1dc _ZN17ngHttpTransporterD1Ev
  0x005ca234 _ZN17ngHttpTransporterD0Ev
  0x005ca240 _ZN17ngHttpTransporter11StartUpLoadER10ngStringV2PKvi
  0x005ca286 _ZN17ngHttpTransporter11StartUpLoadER10ngStringV2S1_
  0x005ca2c8 _ZN17ngHttpTransporter13StartDownLoadER10ngStringV2
  0x005ca308 _ZN17ngHttpTransporter21ClearDownLoadListenerEv
  0x005ca31c _ZN17ngHttpTransporter19ClearUploadListenerEv
  0x005ca330 _ZN17ngHttpTransporter9OnConnectEv
  0x005ca332 _ZN17ngHttpTransporter10OnResponseEP20ngConnectionResponse
  0x005ca34a _ZN17ngHttpTransporter11OnErrorStopE19NG_CONNECTION_ERROR
  0x005ca368 _ZN17ngHttpTransporter6OnDataEPhj
  0x005ca372 _ZN17ngHttpTransporter8OnFinishEv
  0x005ca3be _ZN17ngHttpTransporter14OnUpLoadFinishEv
  0x005ca3ce _ZN17ngHttpTransporter16OnDownLoadFinishEPhj
  0x005ca42c _ZN17ngHttpTransporter14OnDownLoadDataEPhj
  0x005ca42e _ZN17ngHttpTransporter17SetUploadListenerEP18ngUploaderListener
  0x005ca432 _ZN17ngHttpTransporter19SetDownLoadListenerEP18ngDownloadListener
  0x005ca436 _ZN17ngHttpTransporter10GetSessionEv
  0x005ca43a _ZN17ngHttpTransporter11SetS3BucketEPKc
  0x005ca448 _ZN17ngHttpTransporter14SetS3SecretKeyEPKc
  0x005ca456 _ZN17ngHttpTransporter14SetS3AccessKeyEPKc
  0x005ca464 _ZN17ngHttpTransporter12SetOSSBucketEPKc
  0x005ca472 _ZN17ngHttpTransporter15SetOSSSecretKeyEPKc
  0x005ca480 _ZN17ngHttpTransporter15SetOSSAccessKeyEPKc
  0x005ca48e _ZN17ngHttpTransporter14SetASIS3BucketEPKc
  0x005ca49c _ZN17ngHttpTransporter17SetASIS3SecretKeyEPKc
  0x005ca4aa _ZN17ngHttpTransporter17SetASIS3AccessKeyEPKc
  0x005caaf8 _ZN9ngBoolean12ParseBooleanERK10ngStringV2
  0x005cb0a0 _ZN5ngBit8CompressEv
  0x005cb158 _ZN5ngBit10DecompressEPKci
  0x005cb584 _ZN8ngDouble11ParseDoubleERK10ngStringV2
  0x005cbdbc _ZN9ngInteger8ParseIntERK10ngStringV2
  0x005cf2ac _ZN10ngStringV212Base64EncodeEP12ngByteBuffer
  0x005cf308 _ZN10ngStringV212Base64DecodeEv
  0x005cf9bc _ZN12ngHttpClientC2Ev
  0x005cf9bc _ZN12ngHttpClientC1Ev
  0x005cf9f4 _ZN12ngHttpClientD2Ev
  0x005cf9f4 _ZN12ngHttpClientD1Ev
  0x005cfa20 _ZN12ngHttpClient11SetListenerEP20ngHttpClientListener
  0x005cfa24 _ZN12ngHttpClientD0Ev
  0x005cfa54 _ZN12ngHttpClient12DeafListenerEh
  0x005cfa64 _ZN12ngHttpClient9SetGameIdEPKc
  0x005cfa7c _ZN12ngHttpClient14SetGameVersionEi
  0x005cfa94 _ZN12ngHttpClient15SetGamePlatformEi
  0x005cfaac _ZN12ngHttpClient12SetServerIdxEi
  0x005cfac4 _ZN12ngHttpClient10GetSessionEv
  0x005cfac8 _ZN12ngHttpClient12HandleUpdateEi
  0x005cfd6c _ZN12ngHttpClient15ShowErrorDialogEv
  0x005cfdb4 _ZN12ngHttpClient13ParseResponseExPv
  0x005cfdb8 _ZN12ngHttpClient10ParseErrorEPKcS1_Pv
  0x005cfdbc _ZN12ngHttpClient6PutURLER10ngStringV2P10ngJsonHash
  0x005cfe40 _ZN12ngHttpClient13CreateReqBodyEP10ngJsonHash
  0x005cfe94 _ZN12ngHttpClient9GetHeaderEv
  0x005cfffc _ZN11ngHttpQueue11GetInstanceEv
  0x005d0060 _ZN11ngHttpQueue15ReleaseInstanceEPv
  0x005d0078 _ZN11ngHttpQueueC2Ev
  0x005d0078 _ZN11ngHttpQueueC1Ev
  0x005d00b8 _ZN11ngHttpQueueD2Ev
  0x005d00b8 _ZN11ngHttpQueueD1Ev
  0x005d00e8 _ZN11ngHttpQueue5ClearEv
  0x005d011c _ZN11ngHttpQueueD0Ev
  0x005d0150 _ZN11ngHttpQueue12HandleUpdateEi
  0x005d01a8 _ZN11ngHttpQueue4TakeEv
  0x005d01be _ZN11ngHttpQueue4DeafEP20ngHttpClientListenerh
  0x005d020e _ZN11ngHttpQueue8setPauseEh
  0x005d0214 _ZN13ngHttpHandlerC2Ev
  0x005d0214 _ZN13ngHttpHandlerC1Ev
  0x005d022c _ZN13ngHttpHandlerD2Ev
  0x005d022c _ZN13ngHttpHandlerD1Ev
  0x005d0258 _ZN13ngHttpHandlerD0Ev
  0x005d0288 _ZN13ngHttpHandler13GetHttpClientEv
  0x005d02a0 _ZN13ngHttpHandler14OnReceiveErrorEPKcS1_Pv
  0x005d02a4 _ZN13ngHttpHandler14OnNetworkErrorEi
  0x005d02c4 _ZN13ngHttpHandler15ShowErrorDialogEPKcS1_
  0x005e7f1c _ZN13ngViewBuilder9parseViewEP12ngFileReader
  0x005e8364 _ZN13ngViewBuilder12ParseSubViewEP6ngView
  0x005e840c _ZN13ngViewBuilder15ParsePropertiesEi
  0x005e86fa _ZN13ngViewBuilder10ParseImageEP6ngView
  0x005e88b6 _ZN13ngViewBuilder11ParseButtonEP6ngView
  0x005e8c18 _ZN13ngViewBuilder10ParseLabelEP6ngView
  0x005e8c9c _ZN13ngViewBuilder14ParseBasicInfoEP6ngView
  0x005e8e2c _ZN13ngViewBuilder10ParseTableEP6ngView
  0x005e91b2 _ZN13ngViewBuilder14ParseFlowTableEP6ngView
  0x005e91ba _ZN13ngViewBuilder14ParseTextFieldEP6ngView
  0x005e9244 _ZN13ngViewBuilder13ParseTextViewEP6ngView
  0x005e92d4 _ZN13ngViewBuilder13ParseComboBoxEP6ngView
  0x005e94fc _ZN13ngViewBuilder15ParseSpriteViewEP6ngView
  0x005e9610 _ZN13ngViewBuilder11ParseAdViewEP6ngView
  0x005e9638 _ZN13ngViewBuilder12ParseTabViewEP6ngView
  0x005e9660 _ZN13ngViewBuilder17ParseStyleTabViewEP6ngView
  0x005e9744 _ZN13ngViewBuilder11ParseSwitchEP6ngView
  0x005e97ac _ZN13ngViewBuilder16ParseProgressBarEP6ngView
  0x005e9908 _ZN13ngViewBuilder12ParseSpinBoxEP6ngView
  0x005e9aea _ZN13ngViewBuilder19ParseMultiLineLabelEP6ngView
  0x005e9b5a _ZN13ngViewBuilder15ParsePickerViewEP6ngView
  0x005e9ce0 _ZN13ngViewBuilder22ParseStretchImagePanelEP6ngView
  0x005e9df6 _ZN13ngViewBuilder18ParseViewContainerEP6ngView
  0x005e9e38 _ZN13ngViewBuilder16ParseScrollPanelEP6ngView
  0x005e9e76 _ZN13ngViewBuilder15ParseCustomViewEv
  0x005edd40 NewBase64Decode
  0x005ede34 NewBase64Encode
  0x005edfc8 toMD5
  0x005ee054 toMD5WithLen
  0x005ee0dc fileMD5
  0x005ee1e0 as_url_decode
  0x005ee2d0 as_url_encode
  0x005f5804 _ZN14ngStringHelper10encryptXOREPKcS1_
  0x005f58a6 _ZN14ngStringHelper10decryptXOREPKcS1_
  0x005fb198 _ZN11ngLuaEngine8CallFuncEPKcP15ngLuaTypeParserS1_z
  0x005ffcc4 _ZN13ngHttpManagerC2Ev
  0x005ffcc4 _ZN13ngHttpManagerC1Ev
  0x005ffce4 _ZN13ngHttpManagerD2Ev
  0x005ffce4 _ZN13ngHttpManagerD1Ev
  0x005ffd44 _ZN13ngHttpManagerD0Ev
  0x005ffd50 _ZN13ngHttpManager14GetNextSessionEv
  0x005ffd66 _ZN13ngHttpManager18GetNextCURLSessionEv
  0x005ffda0 _ZN13ngHttpRequestC2Ev
  0x005ffda0 _ZN13ngHttpRequestC1Ev
  0x005ffe04 _ZN13ngHttpRequestD2Ev
  0x005ffe04 _ZN13ngHttpRequestD1Ev
  0x005ffe48 _ZN13ngHttpRequestD0Ev
  0x005ffe90 _ZN13ngHttpRequest9SetHeaderEPKcS1_
  0x005ffe9e _ZN13ngHttpRequest9GetHeaderEPKc
  0x005ffeac _ZN13ngHttpRequest14SetContentTypeEPKc
  0x005ffec8 _ZN13ngHttpRequest14GetContentTypeEv
  0x005ffee4 _ZN13ngHttpRequest9SetCookieEPKc
  0x005fff00 _ZN13ngHttpRequest9GetCookieEv
  0x005fff32 _ZN13ngHttpRequest9SetMethodENS_11HTTP_METHODE
  0x005fff84 _ZN12ngHttpHeaderD0Ev
  0x00606778 md5_init
  0x006067a0 md5_append
  0x00606fdc md5_finish
  0x006070c4 _ZN20ngHttpSessionAndroidC2Ev
  0x006070c4 _ZN20ngHttpSessionAndroidC1Ev
  0x006070f0 _ZN20ngHttpSessionAndroidD2Ev
  0x006070f0 _ZN20ngHttpSessionAndroidD1Ev
  0x0060712c _ZN20ngHttpSessionAndroidD0Ev
  0x00607138 _ZN20ngHttpSessionAndroid15RequestInternalER10ngStringV2
  0x006071b8 _ZN20ngHttpSessionAndroid14CancelInternalEv
  0x006071d4 _ZN20ngHttpSessionAndroid15MakeHeaderChunkER11ngArrayList
  0x006073f8 _ZThn108_N20ngHttpSessionAndroid15MakeHeaderChunkER11ngArrayList
  0x00607404 _ZN20ngHttpSessionAndroid13GetHeaderDataEv
  0x006074ec _ZThn108_N20ngHttpSessionAndroid13GetHeaderDataEv
  0x006074f6 _ZN20ngHttpSessionAndroid17GetHeaderDataSizeEv
  0x0060751a _ZThn108_N20ngHttpSessionAndroid17GetHeaderDataSizeEv
  0x00607542 _ZN20ngHttpSessionAndroid14IsResponseDoneEv
  0x00607556 _ZThn108_N20ngHttpSessionAndroid14IsResponseDoneEv
  0x00607570 _ZN20ngHttpSessionAndroid14OnCURLResponseEP14ngHttpResponse
  0x0060757a _ZThn108_N20ngHttpSessionAndroid14OnCURLResponseEP14ngHttpResponse
  0x0060758a _ZN20ngHttpSessionAndroid10OnCURLDataEPhj
  0x00607594 _ZThn108_N20ngHttpSessionAndroid10OnCURLDataEPhj
  0x006075a4 _ZN20ngHttpSessionAndroid12OnCURLFinishEv
  0x00607668 _ZThn108_N20ngHttpSessionAndroid12OnCURLFinishEv
  0x00607672 _ZN20ngHttpSessionAndroid11OnCURLErrorEiPKc
  0x00607680 _ZThn108_N20ngHttpSessionAndroid11OnCURLErrorEiPKc
  0x00607694 _ZN13ngHttpSession11GetResponseEv
  0x00609360 _ZN24ngCURLHttpSessionAndroid14OnCURLResponseEP14ngHttpResponse
  0x0060936a _ZThn108_N24ngCURLHttpSessionAndroid14OnCURLResponseEP14ngHttpResponse
  0x0061d0b8 curl_share_init
  0x0061d0e4 curl_share_setopt
  0x0061d230 curl_share_cleanup
  0x0061d2a8 Curl_share_lock
  0x0061d2cc Curl_share_unlock
  0x0061d350 curl_share_strerror
  0x00620b58 _ZN11dragonBones9ngFactory21parseTextureAtlasDataERKSsS2_S2_f
  0x00623f4c fill_zlib_filefunc64_32_def_from_filefunc32
  0x006241cc _ZN14ngHttpResponseC1Ev
  0x006241cc _ZN14ngHttpResponseC2Ev
  0x00624224 _ZN14ngHttpResponseD2Ev
  0x00624224 _ZN14ngHttpResponseD1Ev
  0x00624264 _ZN14ngHttpResponse14SetContentTypeEPKc
  0x00624284 _ZN14ngHttpResponse14GetContentTypeEv
  0x006242a0 _ZN14ngHttpResponse9SetCookieEPKc
  0x006242c0 _ZN14ngHttpResponse9GetCookieEv
  0x006242dc _ZN14ngHttpResponse16SetContentLengthEi
  0x0062434c _ZN14ngHttpResponse16GetContentLengthEv
  0x00624390 _ZN14ngHttpResponse20GetSuggestedFilenameEv
  0x0062439c _ZN14ngHttpResponse20SetSuggestedFilenameEPKc
  0x006243ac _ZN13ngHttpSessionC2Ev
  0x006243ac _ZN13ngHttpSessionC1Ev
  0x006243d4 _ZN13ngHttpSessionD2Ev
  0x006243d4 _ZN13ngHttpSessionD1Ev
  0x0062440c _ZN13ngHttpSessionD0Ev
  0x00624418 _ZN13ngHttpSession9OnConnectEv
  0x0062442c _ZN13ngHttpSession10OnResponseEP20ngConnectionResponse
  0x0062446c _ZN13ngHttpSession6OnDataEPhj
  0x006244a4 _ZN13ngHttpSession11OnErrorStopE19NG_CONNECTION_ERROR
  0x006244ce _ZN13ngHttpSession8OnFinishEv
  0x006244e4 HMAC_SHA1
  0x0062461c _ZN5ngRC414EncryptWithKeyEPKhPhyPKc
  0x00624724 _ZN5ngRC410OperateKeyEPKcPh
  0x006247f0 _ZN5ngRC414EncryptWithKeyEP12ngByteBufferS1_PKc
  0x00624820 _ZN5ngRC414DecryptWithKeyEP12ngByteBufferS1_PKc
  0x0062b368 Curl_cookie_clearsess
  0x006363e0 Curl_urldecode
  0x0063776c Curl_parsenetrc
  0x0063b3e8 Curl_md5it
  0x0063b470 Curl_MD5_init
  0x0063b4d0 Curl_MD5_update
  0x0063b4e0 Curl_MD5_final
  0x006426d8 _ZN11dragonBones11BaseFactory20parseDragonBonesDataEPKcRKSsf
  0x006426fa _ZN11dragonBones11BaseFactory21parseTextureAtlasDataEPKcPvRKSsf
  0x00647440 _ZN11dragonBones14JSONDataParserC1Ev
  0x00647440 _ZN11dragonBones14JSONDataParserC2Ev
  0x00647460 _ZN11dragonBones14JSONDataParserD1Ev
  0x00647460 _ZN11dragonBones14JSONDataParserD2Ev
  0x00647468 _ZN11dragonBones14JSONDataParserD0Ev
  0x00647474 _ZN11dragonBones14JSONDataParser14_parseArmatureERKN9rapidjson12GenericValueINS1_4UTF8IcEENS1_19MemoryPoolAllocatorINS1_12CrtAllocatorEEEEEf
  0x00647bd8 _ZN11dragonBones14JSONDataParser10_getStringERKN9rapidjson12GenericValueINS1_4UTF8IcEENS1_19MemoryPoolAllocatorINS1_12CrtAllocatorEEEEERPKcRKSs
  0x00647c50 _ZN11dragonBones14JSONDataParser11_getBooleanERKN9rapidjson12GenericValueINS1_4UTF8IcEENS1_19MemoryPoolAllocatorINS1_12CrtAllocatorEEEEERPKcb
  0x00647d6c _ZN11dragonBones14JSONDataParser10_parseBoneERKN9rapidjson12GenericValueINS1_4UTF8IcEENS1_19MemoryPoolAllocatorINS1_12CrtAllocatorEEEEE
  0x00647f8c _ZN11dragonBones14JSONDataParser8_parseIKERKN9rapidjson12GenericValueINS1_4UTF8IcEENS1_19MemoryPoolAllocatorINS1_12CrtAllocatorEEEEE
  0x0064818c _ZN11dragonBones14JSONDataParser10_parseSlotERKN9rapidjson12GenericValueINS1_4UTF8IcEENS1_19MemoryPoolAllocatorINS1_12CrtAllocatorEEEEEi
  0x0064858c _ZN11dragonBones14JSONDataParser10_parseSkinERKN9rapidjson12GenericValueINS1_4UTF8IcEENS1_19MemoryPoolAllocatorINS1_12CrtAllocatorEEEEE
  0x00648760 _ZN11dragonBones14JSONDataParser20_parseSlotDisplaySetERKN9rapidjson12GenericValueINS1_4UTF8IcEENS1_19MemoryPoolAllocatorINS1_12CrtAllocatorEEEEE
  0x00648978 _ZN11dragonBones14JSONDataParser13_parseDisplayERKN9rapidjson12GenericValueINS1_4UTF8IcEENS1_19MemoryPoolAllocatorINS1_12CrtAllocatorEEEEE
  0x00648de4 _ZN11dragonBones14JSONDataParser10_parseMeshERKN9rapidjson12GenericValueINS1_4UTF8IcEENS1_19MemoryPoolAllocatorINS1_12CrtAllocatorEEEEE
  0x00649704 _ZNK9rapidjson12GenericValueINS_4UTF8IcEENS_19MemoryPoolAllocatorINS_12CrtAllocatorEEEE9GetDoubleEv
  0x006497a4 _ZNK11dragonBones14JSONDataParser15_parseAnimationERKN9rapidjson12GenericValueINS1_4UTF8IcEENS1_19MemoryPoolAllocatorINS1_12CrtAllocatorEEEEE
  0x00649f3c _ZNK11dragonBones14JSONDataParser14_parseTimelineINS_18AnimationFrameDataEEEvRKN9rapidjson12GenericValueINS3_4UTF8IcEENS3_19MemoryPoolAllocatorINS3_12CrtAllocatorEEEEERNS_12TimelineDataIT_EERKSt8functionIFPSE_SC_jjEE
  0x0064a564 _ZNK11dragonBones14JSONDataParser18_parseBoneTimelineERKN9rapidjson12GenericValueINS1_4UTF8IcEENS1_19MemoryPoolAllocatorINS1_12CrtAllocatorEEEEE
  0x0064a8d4 _ZNK11dragonBones14JSONDataParser14_parseTimelineINS_13BoneFrameDataEEEvRKN9rapidjson12GenericValueINS3_4UTF8IcEENS3_19MemoryPoolAllocatorINS3_12CrtAllocatorEEEEERNS_12TimelineDataIT_EERKSt8functionIFPSE_SC_jjEE
  0x0064ac48 _ZNK11dragonBones14JSONDataParser18_parseSlotTimelineERKN9rapidjson12GenericValueINS1_4UTF8IcEENS1_19MemoryPoolAllocatorINS1_12CrtAllocatorEEEEE
  0x0064ad3c _ZNK11dragonBones14JSONDataParser14_parseTimelineINS_13SlotFrameDataEEEvRKN9rapidjson12GenericValueINS3_4UTF8IcEENS3_19MemoryPoolAllocatorINS3_12CrtAllocatorEEEEERNS_12TimelineDataIT_EERKSt8functionIFPSE_SC_jjEE
  0x0064b0b0 _ZNK11dragonBones14JSONDataParser17_parseFFDTimelineERKN9rapidjson12GenericValueINS1_4UTF8IcEENS1_19MemoryPoolAllocatorINS1_12CrtAllocatorEEEEE
  0x0064b334 _ZNK11dragonBones14JSONDataParser14_parseTimelineINS_18ExtensionFrameDataEEEvRKN9rapidjson12GenericValueINS3_4UTF8IcEENS3_19MemoryPoolAllocatorINS3_12CrtAllocatorEEEEERNS_12TimelineDataIT_EERKSt8functionIFPSE_SC_jjEE
  0x0064b6a8 _ZNK11dragonBones14JSONDataParser20_parseAnimationFrameERKN9rapidjson12GenericValueINS1_4UTF8IcEENS1_19MemoryPoolAllocatorINS1_12CrtAllocatorEEEEEjj
  0x0064b868 _ZNK11dragonBones14JSONDataParser15_parseBoneFrameERKN9rapidjson12GenericValueINS1_4UTF8IcEENS1_19MemoryPoolAllocatorINS1_12CrtAllocatorEEEEEjj
  0x0064bd08 _ZNK11dragonBones14JSONDataParser16_parseTweenFrameINS_13BoneFrameDataEEEvRKN9rapidjson12GenericValueINS3_4UTF8IcEENS3_19MemoryPoolAllocatorINS3_12CrtAllocatorEEEEERNS_14TweenFrameDataIT_EEjj
  0x0064beb8 _ZNK11dragonBones14JSONDataParser15_parseSlotFrameERKN9rapidjson12GenericValueINS1_4UTF8IcEENS1_19MemoryPoolAllocatorINS1_12CrtAllocatorEEEEEjj
  0x0064c0d0 _ZNK11dragonBones14JSONDataParser16_parseTweenFrameINS_13SlotFrameDataEEEvRKN9rapidjson12GenericValueINS3_4UTF8IcEENS3_19MemoryPoolAllocatorINS3_12CrtAllocatorEEEEERNS_14TweenFrameDataIT_EEjj
  0x0064c280 _ZNK11dragonBones14JSONDataParser14_parseFFDFrameERKN9rapidjson12GenericValueINS1_4UTF8IcEENS1_19MemoryPoolAllocatorINS1_12CrtAllocatorEEEEEjj
  0x0064c5bc _ZNK11dragonBones14JSONDataParser16_parseTweenFrameINS_18ExtensionFrameDataEEEvRKN9rapidjson12GenericValueINS3_4UTF8IcEENS3_19MemoryPoolAllocatorINS3_12CrtAllocatorEEEEERNS_14TweenFrameDataIT_EEjj
  0x0064c76c _ZNK11dragonBones14JSONDataParser16_parseActionDataERKN9rapidjson12GenericValueINS1_4UTF8IcEENS1_19MemoryPoolAllocatorINS1_12CrtAllocatorEEEEERSt6vectorIPNS_10ActionDataESaISD_EEPNS_8BoneDataEPNS_8SlotDataE
  0x0064cbfc _ZNK11dragonBones14JSONDataParser15_parseEventDataERKN9rapidjson12GenericValueINS1_4UTF8IcEENS1_19MemoryPoolAllocatorINS1_12CrtAllocatorEEEEERSt6vectorIPNS_9EventDataESaISD_EEPNS_8BoneDataEPNS_8SlotDataE
  0x0064cde0 _ZNK11dragonBones14JSONDataParser15_parseTransformERKN9rapidjson12GenericValueINS1_4UTF8IcEENS1_19MemoryPoolAllocatorINS1_12CrtAllocatorEEEEERNS_9TransformE
  0x0064d098 _ZNK11dragonBones14JSONDataParser20_parseColorTransformERKN9rapidjson12GenericValueINS1_4UTF8IcEENS1_19MemoryPoolAllocatorINS1_12CrtAllocatorEEEEERNS_14ColorTransformE
  0x0064d304 _ZN11dragonBones14JSONDataParser20parseDragonBonesDataEPKcf
  0x0064d660 _ZN9rapidjson12GenericValueINS_4UTF8IcEENS_19MemoryPoolAllocatorINS_12CrtAllocatorEEEEixIKcEENS_8internal9DisableIfINS9_15RemoveSfinaeTagIPFRNS9_9SfinaeTagENS9_7NotExprINS9_6IsSameINS9_11RemoveConstIT_E4TypeEcEEEEEE4TypeERS6_E4TypeEPSH_
  0x0064d6c4 _ZN11dragonBones14JSONDataParser21parseTextureAtlasDataEPKcRNS_16TextureAtlasDataEf
  0x0064dd40 _ZN9rapidjson12GenericValueINS_4UTF8IcEENS_19MemoryPoolAllocatorINS_12CrtAllocatorEEEEixIS5_EERS6_RKNS0_IS2_T_EE
  0x0064dd84 _ZN9rapidjson12GenericValueINS_4UTF8IcEENS_19MemoryPoolAllocatorINS_12CrtAllocatorEEEE10FindMemberIS5_EENS_21GenericMemberIteratorILb0ES2_S5_EERKNS0_IS2_T_EE
  0x0064ddb4 _ZNK9rapidjson12GenericValueINS_4UTF8IcEENS_19MemoryPoolAllocatorINS_12CrtAllocatorEEEE11StringEqualIS5_EEbRKNS0_IS2_T_EE
  0x0064dea4 _ZN9rapidjson15GenericDocumentINS_4UTF8IcEENS_19MemoryPoolAllocatorINS_12CrtAllocatorEEES4_E11ParseStreamILj0ES2_NS_19GenericStringStreamIS2_EEEERS6_RT1_
  0x0064df24 _ZN9rapidjson13GenericReaderINS_4UTF8IcEES2_NS_12CrtAllocatorEE5ParseILj0ENS_19GenericStringStreamIS2_EENS_15GenericDocumentIS2_NS_19MemoryPoolAllocatorIS3_EES3_EEEENS_11ParseResultERT0_RT1_
  0x0064dfcc _ZN9rapidjson8internal5StackINS_12CrtAllocatorEE7DestroyEv
  0x0064dfe2 _ZN9rapidjson8internal5StackINS_12CrtAllocatorEE11ShrinkToFitEv
  0x0064e006 _ZN9rapidjson8internal5StackINS_12CrtAllocatorEE6ResizeEj
  0x0064e030 _ZN9rapidjson13GenericReaderINS_4UTF8IcEES2_NS_12CrtAllocatorEE10ParseValueILj0ENS_19GenericStringStreamIS2_EENS_15GenericDocumentIS2_NS_19MemoryPoolAllocatorIS3_EES3_EEEEvRT0_RT1_
  0x0064e08a _ZN9rapidjson13GenericReaderINS_4UTF8IcEES2_NS_12CrtAllocatorEE9ParseNullILj0ENS_19GenericStringStreamIS2_EENS_15GenericDocumentIS2_NS_19MemoryPoolAllocatorIS3_EES3_EEEEvRT0_RT1_
  0x0064e0c4 _ZN9rapidjson13GenericReaderINS_4UTF8IcEES2_NS_12CrtAllocatorEE9ParseTrueILj0ENS_19GenericStringStreamIS2_EENS_15GenericDocumentIS2_NS_19MemoryPoolAllocatorIS3_EES3_EEEEvRT0_RT1_
  0x0064e100 _ZN9rapidjson13GenericReaderINS_4UTF8IcEES2_NS_12CrtAllocatorEE10ParseFalseILj0ENS_19GenericStringStreamIS2_EENS_15GenericDocumentIS2_NS_19MemoryPoolAllocatorIS3_EES3_EEEEvRT0_RT1_
  0x0064e148 _ZN9rapidjson13GenericReaderINS_4UTF8IcEES2_NS_12CrtAllocatorEE11ParseStringILj0ENS_19GenericStringStreamIS2_EENS_15GenericDocumentIS2_NS_19MemoryPoolAllocatorIS3_EES3_EEEEvRT0_RT1_b
  0x0064e320 _ZN9rapidjson13GenericReaderINS_4UTF8IcEES2_NS_12CrtAllocatorEE11ParseObjectILj0ENS_19GenericStringStreamIS2_EENS_15GenericDocumentIS2_NS_19MemoryPoolAllocatorIS3_EES3_EEEEvRT0_RT1_
  0x0064e49c _ZN9rapidjson13GenericReaderINS_4UTF8IcEES2_NS_12CrtAllocatorEE10ParseArrayILj0ENS_19GenericStringStreamIS2_EENS_15GenericDocumentIS2_NS_19MemoryPoolAllocatorIS3_EES3_EEEEvRT0_RT1_
  0x0064e5a8 _ZN9rapidjson13GenericReaderINS_4UTF8IcEES2_NS_12CrtAllocatorEE11ParseNumberILj0ENS_19GenericStringStreamIS2_EENS_15GenericDocumentIS2_NS_19MemoryPoolAllocatorIS3_EES3_EEEEvRT0_RT1_
  0x0064ec94 _ZN9rapidjson15GenericDocumentINS_4UTF8IcEENS_19MemoryPoolAllocatorINS_12CrtAllocatorEEES4_E6DoubleEd
  0x0064ecdc _ZN9rapidjson15GenericDocumentINS_4UTF8IcEENS_19MemoryPoolAllocatorINS_12CrtAllocatorEEES4_E5Int64Ex
  0x0064ed14 _ZN9rapidjson15GenericDocumentINS_4UTF8IcEENS_19MemoryPoolAllocatorINS_12CrtAllocatorEEES4_E6Uint64Ey
  0x0064ed88 _ZN9rapidjson15GenericDocumentINS_4UTF8IcEENS_19MemoryPoolAllocatorINS_12CrtAllocatorEEES4_E3IntEi
  0x0064edd8 _ZN9rapidjson15GenericDocumentINS_4UTF8IcEENS_19MemoryPoolAllocatorINS_12CrtAllocatorEEES4_E4UintEj
  0x0064ee28 _ZN9rapidjson8internal5StackINS_12CrtAllocatorEE6ExpandINS_12GenericValueINS_4UTF8IcEENS_19MemoryPoolAllocatorIS2_EEEEEEvj
  0x0064ee6a _ZN9rapidjson12GenericValueINS_4UTF8IcEENS_19MemoryPoolAllocatorINS_12CrtAllocatorEEEEC2Ex
  0x0064eec8 _ZN9rapidjson15GenericDocumentINS_4UTF8IcEENS_19MemoryPoolAllocatorINS_12CrtAllocatorEEES4_E10StartArrayEv
  0x0064ef02 _ZN9rapidjson15GenericDocumentINS_4UTF8IcEENS_19MemoryPoolAllocatorINS_12CrtAllocatorEEES4_E8EndArrayEj
  0x0064ef62 _ZN9rapidjson19MemoryPoolAllocatorINS_12CrtAllocatorEE6MallocEj
  0x0064efa0 _ZN9rapidjson19MemoryPoolAllocatorINS_12CrtAllocatorEE8AddChunkEj
  0x0064efd4 _ZN9rapidjson15GenericDocumentINS_4UTF8IcEENS_19MemoryPoolAllocatorINS_12CrtAllocatorEEES4_E11StartObjectEv
  0x0064f00e _ZN9rapidjson15GenericDocumentINS_4UTF8IcEENS_19MemoryPoolAllocatorINS_12CrtAllocatorEEES4_E9EndObjectEj
  0x0064f06c _ZN9rapidjson15GenericDocumentINS_4UTF8IcEENS_19MemoryPoolAllocatorINS_12CrtAllocatorEEES4_E6StringEPKcjb
  0x0064f0e0 _ZN9rapidjson12GenericValueINS_4UTF8IcEENS_19MemoryPoolAllocatorINS_12CrtAllocatorEEEE12SetStringRawENS_16GenericStringRefIcEERS5_
  0x0064f12c _ZN9rapidjson13GenericReaderINS_4UTF8IcEES2_NS_12CrtAllocatorEE9ParseHex4INS_19GenericStringStreamIS2_EEEEjRT_j
  0x0064f186 _ZN9rapidjson4UTF8IcE6EncodeINS_13GenericReaderIS1_S1_NS_12CrtAllocatorEE11StackStreamIcEEEEvRT_j
  0x0064f2e2 _ZN9rapidjson8internal5StackINS_12CrtAllocatorEE6ExpandIcEEvj
  0x0064f322 _ZN9rapidjson15GenericDocumentINS_4UTF8IcEENS_19MemoryPoolAllocatorINS_12CrtAllocatorEEES4_E4BoolEb
  0x0064f366 _ZN9rapidjson15GenericDocumentINS_4UTF8IcEENS_19MemoryPoolAllocatorINS_12CrtAllocatorEEES4_E4NullEv
  0x0064f39c _ZN9rapidjson15GenericDocumentINS_4UTF8IcEENS_19MemoryPoolAllocatorINS_12CrtAllocatorEEES4_E7DestroyEv
  0x0064f3ae _ZN9rapidjson19MemoryPoolAllocatorINS_12CrtAllocatorEED2Ev
  0x0064f3c4 _ZN9rapidjson19MemoryPoolAllocatorINS_12CrtAllocatorEE5ClearEv
  0x0064fef8 _ZNSt17_Function_handlerIFPN11dragonBones18ExtensionFrameDataERKN9rapidjson12GenericValueINS3_4UTF8IcEENS3_19MemoryPoolAllocatorINS3_12CrtAllocatorEEEEEjjESt5_BindIFSt7_Mem_fnIMNS0_14JSONDataParserEKFS2_SC_jjEEPKSG_St12_PlaceholderILi1EESM_ILi2EESM_ILi3EEEEE9_M_invokeERKSt9_Any_dataSC_jj
  0x0064ff18 _ZNSt14_Function_base13_Base_managerISt5_BindIFSt7_Mem_fnIMN11dragonBones14JSONDataParserEKFPNS3_18ExtensionFrameDataERKN9rapidjson12GenericValueINS7_4UTF8IcEENS7_19MemoryPoolAllocatorINS7_12CrtAllocatorEEEEEjjEEPKS4_St12_PlaceholderILi1EESM_ILi2EESM_ILi3EEEEE10_M_managerERSt9_Any_dataRKST_St18_Manager_operation
  0x0064ff84 _ZNSt5_BindIFSt7_Mem_fnIMN11dragonBones14JSONDataParserEKFPNS1_18ExtensionFrameDataERKN9rapidjson12GenericValueINS5_4UTF8IcEENS5_19MemoryPoolAllocatorINS5_12CrtAllocatorEEEEEjjEEPKS2_St12_PlaceholderILi1EESK_ILi2EESK_ILi3EEEE6__callIS4_JSE_OjSR_EJLj0ELj1ELj2ELj3EEEET_OSt5tupleIJDpT0_EESt12_Index_tupleIJXspT1_EEE
  0x00650116 _ZNSt17_Function_handlerIFPN11dragonBones13SlotFrameDataERKN9rapidjson12GenericValueINS3_4UTF8IcEENS3_19MemoryPoolAllocatorINS3_12CrtAllocatorEEEEEjjESt5_BindIFSt7_Mem_fnIMNS0_14JSONDataParserEKFS2_SC_jjEEPKSG_St12_PlaceholderILi1EESM_ILi2EESM_ILi3EEEEE9_M_invokeERKSt9_Any_dataSC_jj
  0x00650138 _ZNSt14_Function_base13_Base_managerISt5_BindIFSt7_Mem_fnIMN11dragonBones14JSONDataParserEKFPNS3_13SlotFrameDataERKN9rapidjson12GenericValueINS7_4UTF8IcEENS7_19MemoryPoolAllocatorINS7_12CrtAllocatorEEEEEjjEEPKS4_St12_PlaceholderILi1EESM_ILi2EESM_ILi3EEEEE10_M_managerERSt9_Any_dataRKST_St18_Manager_operation
  0x006501a4 _ZNSt5_BindIFSt7_Mem_fnIMN11dragonBones14JSONDataParserEKFPNS1_13SlotFrameDataERKN9rapidjson12GenericValueINS5_4UTF8IcEENS5_19MemoryPoolAllocatorINS5_12CrtAllocatorEEEEEjjEEPKS2_St12_PlaceholderILi1EESK_ILi2EESK_ILi3EEEE6__callIS4_JSE_OjSR_EJLj0ELj1ELj2ELj3EEEET_OSt5tupleIJDpT0_EESt12_Index_tupleIJXspT1_EEE
  0x006501ca _ZNSt17_Function_handlerIFPN11dragonBones13BoneFrameDataERKN9rapidjson12GenericValueINS3_4UTF8IcEENS3_19MemoryPoolAllocatorINS3_12CrtAllocatorEEEEEjjESt5_BindIFSt7_Mem_fnIMNS0_14JSONDataParserEKFS2_SC_jjEEPKSG_St12_PlaceholderILi1EESM_ILi2EESM_ILi3EEEEE9_M_invokeERKSt9_Any_dataSC_jj
  0x006501ec _ZNSt14_Function_base13_Base_managerISt5_BindIFSt7_Mem_fnIMN11dragonBones14JSONDataParserEKFPNS3_13BoneFrameDataERKN9rapidjson12GenericValueINS7_4UTF8IcEENS7_19MemoryPoolAllocatorINS7_12CrtAllocatorEEEEEjjEEPKS4_St12_PlaceholderILi1EESM_ILi2EESM_ILi3EEEEE10_M_managerERSt9_Any_dataRKST_St18_Manager_operation
  0x00650258 _ZNSt5_BindIFSt7_Mem_fnIMN11dragonBones14JSONDataParserEKFPNS1_13BoneFrameDataERKN9rapidjson12GenericValueINS5_4UTF8IcEENS5_19MemoryPoolAllocatorINS5_12CrtAllocatorEEEEEjjEEPKS2_St12_PlaceholderILi1EESK_ILi2EESK_ILi3EEEE6__callIS4_JSE_OjSR_EJLj0ELj1ELj2ELj3EEEET_OSt5tupleIJDpT0_EESt12_Index_tupleIJXspT1_EEE
  0x00650548 _ZNSt17_Function_handlerIFPN11dragonBones18AnimationFrameDataERKN9rapidjson12GenericValueINS3_4UTF8IcEENS3_19MemoryPoolAllocatorINS3_12CrtAllocatorEEEEEjjESt5_BindIFSt7_Mem_fnIMNS0_14JSONDataParserEKFS2_SC_jjEEPKSG_St12_PlaceholderILi1EESM_ILi2EESM_ILi3EEEEE9_M_invokeERKSt9_Any_dataSC_jj
  0x00650568 _ZNSt14_Function_base13_Base_managerISt5_BindIFSt7_Mem_fnIMN11dragonBones14JSONDataParserEKFPNS3_18AnimationFrameDataERKN9rapidjson12GenericValueINS7_4UTF8IcEENS7_19MemoryPoolAllocatorINS7_12CrtAllocatorEEEEEjjEEPKS4_St12_PlaceholderILi1EESM_ILi2EESM_ILi3EEEEE10_M_managerERSt9_Any_dataRKST_St18_Manager_operation
  0x006505d4 _ZNSt5_BindIFSt7_Mem_fnIMN11dragonBones14JSONDataParserEKFPNS1_18AnimationFrameDataERKN9rapidjson12GenericValueINS5_4UTF8IcEENS5_19MemoryPoolAllocatorINS5_12CrtAllocatorEEEEEjjEEPKS2_St12_PlaceholderILi1EESK_ILi2EESK_ILi3EEEE6__callIS4_JSE_OjSR_EJLj0ELj1ELj2ELj3EEEET_OSt5tupleIJDpT0_EESt12_Index_tupleIJXspT1_EEE
  0x00651020 _ZN9rapidjson12GenericValueINS_4UTF8IcEENS_19MemoryPoolAllocatorINS_12CrtAllocatorEEEE10FindMemberEPKc
  0x00657940 Curl_base64_decode
  0x00657adc Curl_base64_encode
  0x00657c5c Curl_base64url_encode
  0x0065b9b8 _ZN11dragonBones10DataParser17_getTextureFormatERKSs
  0x0065bafc _ZN11dragonBones10DataParser16_getArmatureTypeERKSs
  0x0065bbec _ZN11dragonBones10DataParser15_getDisplayTypeERKSs
  0x0065bcdc _ZN11dragonBones10DataParser13_getBlendModeERKSs
  0x0065bf04 _ZN11dragonBones10DataParser14_getActionTypeERKSs
  0x0065c048 _ZN11dragonBones10DataParserC2Ev
  0x0065c048 _ZN11dragonBones10DataParserC1Ev
  0x0065c0a8 _ZN11dragonBones10DataParserD2Ev
  0x0065c0a8 _ZN11dragonBones10DataParserD1Ev
  0x0065c0d4 _ZN11dragonBones10DataParserD0Ev
  0x0065c104 _ZNK11dragonBones10DataParser23_getTimelineFrameMatrixERKNS_13AnimationDataERNS_16BoneTimelineDataEfRNS_9TransformE
  0x0065c344 _ZNK11dragonBones10DataParser14_globalToLocalEPNS_12ArmatureDataE
  0x0065cc80 _ZNK11dragonBones10DataParser30_mergeFrameToAnimationTimelineEfRKSt6vectorIPNS_10ActionDataESaIS3_EERKS1_IPNS_9EventDataESaIS9_EE
  0x00710730 _ZTS17ngNetworkAPIMaker
  0x00711920 _ZTS18CCKJsonParseHelper
  0x00716ea0 _ZTS10ngRC4Mnger
  0x007178c0 _ZTS16ngHttpDownloader
  0x007178e0 _ZTS17ngHttpTransporter
  0x00717bb0 _ZTS12ngHttpClient
  0x00717bc0 _ZTS11ngHttpQueue
  0x00717bd0 _ZTS13ngHttpHandler
  0x00717be0 _ZTS20ngHttpClientListener
  0x00718a70 _ZTS13ngHttpManager
  0x00718a80 _ZTS13ngHttpRequest
  0x00718ab0 _ZTS12ngHttpHeader
  0x00718cb0 _ZTS20ngHttpSessionAndroid
  0x007191d0 _ZTS14ngHttpResponse
  0x00719210 _ZTS13ngHttpSession
  0x00719a70 _ZTSN11dragonBones14JSONDataParserE
  0x00719a90 _ZTSN11dragonBones10DataParserE
  0x00719ab0 _ZZN9rapidjson8internal5Pow10EiE1e
  0x0071a458 _ZZN9rapidjson13GenericReaderINS_4UTF8IcEES2_NS_12CrtAllocatorEE19ParseStringToStreamILj0ES2_S2_NS_19GenericStringStreamIS2_EENS4_11StackStreamIcEEEEvRT2_RT3_E6escape
  0x0071a560 _ZTSSt5_BindIFSt7_Mem_fnIMN11dragonBones14JSONDataParserEKFPNS1_18ExtensionFrameDataERKN9rapidjson12GenericValueINS5_4UTF8IcEENS5_19MemoryPoolAllocatorINS5_12CrtAllocatorEEEEEjjEEPKS2_St12_PlaceholderILi1EESK_ILi2EESK_ILi3EEEE
  0x0071a640 _ZTSSt17_Weak_result_typeISt7_Mem_fnIMN11dragonBones14JSONDataParserEKFPNS1_18ExtensionFrameDataERKN9rapidjson12GenericValueINS5_4UTF8IcEENS5_19MemoryPoolAllocatorINS5_12CrtAllocatorEEEEEjjEEE
  0x0071a700 _ZTSSt22_Weak_result_type_implISt7_Mem_fnIMN11dragonBones14JSONDataParserEKFPNS1_18ExtensionFrameDataERKN9rapidjson12GenericValueINS5_4UTF8IcEENS5_19MemoryPoolAllocatorINS5_12CrtAllocatorEEEEEjjEEE
  0x0071a7d0 _ZTSSt22_Maybe_get_result_typeILb1ESt7_Mem_fnIMN11dragonBones14JSONDataParserEKFPNS1_18ExtensionFrameDataERKN9rapidjson12GenericValueINS5_4UTF8IcEENS5_19MemoryPoolAllocatorINS5_12CrtAllocatorEEEEEjjEEE
  0x0071a8a0 _ZTSSt5_BindIFSt7_Mem_fnIMN11dragonBones14JSONDataParserEKFPNS1_13SlotFrameDataERKN9rapidjson12GenericValueINS5_4UTF8IcEENS5_19MemoryPoolAllocatorINS5_12CrtAllocatorEEEEEjjEEPKS2_St12_PlaceholderILi1EESK_ILi2EESK_ILi3EEEE
  0x0071a980 _ZTSSt17_Weak_result_typeISt7_Mem_fnIMN11dragonBones14JSONDataParserEKFPNS1_13SlotFrameDataERKN9rapidjson12GenericValueINS5_4UTF8IcEENS5_19MemoryPoolAllocatorINS5_12CrtAllocatorEEEEEjjEEE
  0x0071aa40 _ZTSSt22_Weak_result_type_implISt7_Mem_fnIMN11dragonBones14JSONDataParserEKFPNS1_13SlotFrameDataERKN9rapidjson12GenericValueINS5_4UTF8IcEENS5_19MemoryPoolAllocatorINS5_12CrtAllocatorEEEEEjjEEE
  0x0071ab00 _ZTSSt22_Maybe_get_result_typeILb1ESt7_Mem_fnIMN11dragonBones14JSONDataParserEKFPNS1_13SlotFrameDataERKN9rapidjson12GenericValueINS5_4UTF8IcEENS5_19MemoryPoolAllocatorINS5_12CrtAllocatorEEEEEjjEEE
  0x0071abd0 _ZTSSt5_BindIFSt7_Mem_fnIMN11dragonBones14JSONDataParserEKFPNS1_13BoneFrameDataERKN9rapidjson12GenericValueINS5_4UTF8IcEENS5_19MemoryPoolAllocatorINS5_12CrtAllocatorEEEEEjjEEPKS2_St12_PlaceholderILi1EESK_ILi2EESK_ILi3EEEE
  0x0071acb0 _ZTSSt17_Weak_result_typeISt7_Mem_fnIMN11dragonBones14JSONDataParserEKFPNS1_13BoneFrameDataERKN9rapidjson12GenericValueINS5_4UTF8IcEENS5_19MemoryPoolAllocatorINS5_12CrtAllocatorEEEEEjjEEE
  0x0071ad70 _ZTSSt22_Weak_result_type_implISt7_Mem_fnIMN11dragonBones14JSONDataParserEKFPNS1_13BoneFrameDataERKN9rapidjson12GenericValueINS5_4UTF8IcEENS5_19MemoryPoolAllocatorINS5_12CrtAllocatorEEEEEjjEEE
  0x0071ae30 _ZTSSt22_Maybe_get_result_typeILb1ESt7_Mem_fnIMN11dragonBones14JSONDataParserEKFPNS1_13BoneFrameDataERKN9rapidjson12GenericValueINS5_4UTF8IcEENS5_19MemoryPoolAllocatorINS5_12CrtAllocatorEEEEEjjEEE
  0x0071af00 _ZTSSt5_BindIFSt7_Mem_fnIMN11dragonBones14JSONDataParserEKFPNS1_18AnimationFrameDataERKN9rapidjson12GenericValueINS5_4UTF8IcEENS5_19MemoryPoolAllocatorINS5_12CrtAllocatorEEEEEjjEEPKS2_St12_PlaceholderILi1EESK_ILi2EESK_ILi3EEEE
  0x0071afe0 _ZTSSt17_Weak_result_typeISt7_Mem_fnIMN11dragonBones14JSONDataParserEKFPNS1_18AnimationFrameDataERKN9rapidjson12GenericValueINS5_4UTF8IcEENS5_19MemoryPoolAllocatorINS5_12CrtAllocatorEEEEEjjEEE
  0x0071b0a0 _ZTSSt22_Weak_result_type_implISt7_Mem_fnIMN11dragonBones14JSONDataParserEKFPNS1_18AnimationFrameDataERKN9rapidjson12GenericValueINS5_4UTF8IcEENS5_19MemoryPoolAllocatorINS5_12CrtAllocatorEEEEEjjEEE
  0x0071b170 _ZTSSt22_Maybe_get_result_typeILb1ESt7_Mem_fnIMN11dragonBones14JSONDataParserEKFPNS1_18AnimationFrameDataERKN9rapidjson12GenericValueINS5_4UTF8IcEENS5_19MemoryPoolAllocatorINS5_12CrtAllocatorEEEEEjjEEE
  0x0071f460 Curl_HMAC_MD5
  0x0071f478 Curl_DIGEST_MD5
  0x00732c00 _ZTI17ngNetworkAPIMaker
  0x007379f0 _ZTI18CCKJsonParseHelper
  0x0074db70 _ZTV10ngRC4Mnger
  0x0074db80 _ZTI10ngRC4Mnger
  0x0074fbf0 _ZTV16ngHttpDownloader
  0x0074fc24 _ZTI16ngHttpDownloader
  0x0074fc30 _ZTV17ngHttpTransporter
  0x0074fca4 _ZTI17ngHttpTransporter
  0x00750380 _ZTV12ngHttpClient
  0x007503a0 _ZTI12ngHttpClient
  0x007503b0 _ZTV11ngHttpQueue
  0x007503c8 _ZTI11ngHttpQueue
  0x007503e0 _ZTV13ngHttpHandler
  0x007503fc _ZTI13ngHttpHandler
  0x00750410 _ZTI20ngHttpClientListener
  0x00754000 _ZTV13ngHttpManager
  0x0075402c _ZTI13ngHttpManager
  0x00754040 _ZTV13ngHttpRequest
  0x0075406c _ZTI13ngHttpRequest
  0x007540b0 _ZTV12ngHttpHeader
  0x00754110 _ZTI12ngHttpHeader
  0x00755510 _ZTV20ngHttpSessionAndroid
  0x007555e0 _ZTI20ngHttpSessionAndroid
  0x00756140 _ZTV14ngHttpResponse
  0x0075614c _ZTI14ngHttpResponse
  0x00756160 _ZTV13ngHttpSession
  0x007561dc _ZTI13ngHttpSession
  0x00756670 _ZTVN11dragonBones14JSONDataParserE
  0x007566d8 _ZTIN11dragonBones14JSONDataParserE
  0x007566f0 _ZTIN11dragonBones10DataParserE
  0x007566f8 _ZTISt22_Maybe_get_result_typeILb1ESt7_Mem_fnIMN11dragonBones14JSONDataParserEKFPNS1_18ExtensionFrameDataERKN9rapidjson12GenericValueINS5_4UTF8IcEENS5_19MemoryPoolAllocatorINS5_12CrtAllocatorEEEEEjjEEE
  0x00756700 _ZTISt22_Weak_result_type_implISt7_Mem_fnIMN11dragonBones14JSONDataParserEKFPNS1_18ExtensionFrameDataERKN9rapidjson12GenericValueINS5_4UTF8IcEENS5_19MemoryPoolAllocatorINS5_12CrtAllocatorEEEEEjjEEE
  0x0075670c _ZTISt17_Weak_result_typeISt7_Mem_fnIMN11dragonBones14JSONDataParserEKFPNS1_18ExtensionFrameDataERKN9rapidjson12GenericValueINS5_4UTF8IcEENS5_19MemoryPoolAllocatorINS5_12CrtAllocatorEEEEEjjEEE
  0x00756718 _ZTISt5_BindIFSt7_Mem_fnIMN11dragonBones14JSONDataParserEKFPNS1_18ExtensionFrameDataERKN9rapidjson12GenericValueINS5_4UTF8IcEENS5_19MemoryPoolAllocatorINS5_12CrtAllocatorEEEEEjjEEPKS2_St12_PlaceholderILi1EESK_ILi2EESK_ILi3EEEE
  0x00756724 _ZTISt22_Maybe_get_result_typeILb1ESt7_Mem_fnIMN11dragonBones14JSONDataParserEKFPNS1_13SlotFrameDataERKN9rapidjson12GenericValueINS5_4UTF8IcEENS5_19MemoryPoolAllocatorINS5_12CrtAllocatorEEEEEjjEEE
  0x0075672c _ZTISt22_Weak_result_type_implISt7_Mem_fnIMN11dragonBones14JSONDataParserEKFPNS1_13SlotFrameDataERKN9rapidjson12GenericValueINS5_4UTF8IcEENS5_19MemoryPoolAllocatorINS5_12CrtAllocatorEEEEEjjEEE
  0x00756738 _ZTISt17_Weak_result_typeISt7_Mem_fnIMN11dragonBones14JSONDataParserEKFPNS1_13SlotFrameDataERKN9rapidjson12GenericValueINS5_4UTF8IcEENS5_19MemoryPoolAllocatorINS5_12CrtAllocatorEEEEEjjEEE
  0x00756744 _ZTISt5_BindIFSt7_Mem_fnIMN11dragonBones14JSONDataParserEKFPNS1_13SlotFrameDataERKN9rapidjson12GenericValueINS5_4UTF8IcEENS5_19MemoryPoolAllocatorINS5_12CrtAllocatorEEEEEjjEEPKS2_St12_PlaceholderILi1EESK_ILi2EESK_ILi3EEEE
  0x00756750 _ZTISt22_Maybe_get_result_typeILb1ESt7_Mem_fnIMN11dragonBones14JSONDataParserEKFPNS1_13BoneFrameDataERKN9rapidjson12GenericValueINS5_4UTF8IcEENS5_19MemoryPoolAllocatorINS5_12CrtAllocatorEEEEEjjEEE
  0x00756758 _ZTISt22_Weak_result_type_implISt7_Mem_fnIMN11dragonBones14JSONDataParserEKFPNS1_13BoneFrameDataERKN9rapidjson12GenericValueINS5_4UTF8IcEENS5_19MemoryPoolAllocatorINS5_12CrtAllocatorEEEEEjjEEE
  0x00756764 _ZTISt17_Weak_result_typeISt7_Mem_fnIMN11dragonBones14JSONDataParserEKFPNS1_13BoneFrameDataERKN9rapidjson12GenericValueINS5_4UTF8IcEENS5_19MemoryPoolAllocatorINS5_12CrtAllocatorEEEEEjjEEE
  0x00756770 _ZTISt5_BindIFSt7_Mem_fnIMN11dragonBones14JSONDataParserEKFPNS1_13BoneFrameDataERKN9rapidjson12GenericValueINS5_4UTF8IcEENS5_19MemoryPoolAllocatorINS5_12CrtAllocatorEEEEEjjEEPKS2_St12_PlaceholderILi1EESK_ILi2EESK_ILi3EEEE
  0x0075677c _ZTISt22_Maybe_get_result_typeILb1ESt7_Mem_fnIMN11dragonBones14JSONDataParserEKFPNS1_18AnimationFrameDataERKN9rapidjson12GenericValueINS5_4UTF8IcEENS5_19MemoryPoolAllocatorINS5_12CrtAllocatorEEEEEjjEEE
  0x00756784 _ZTISt22_Weak_result_type_implISt7_Mem_fnIMN11dragonBones14JSONDataParserEKFPNS1_18AnimationFrameDataERKN9rapidjson12GenericValueINS5_4UTF8IcEENS5_19MemoryPoolAllocatorINS5_12CrtAllocatorEEEEEjjEEE
  0x00756790 _ZTISt17_Weak_result_typeISt7_Mem_fnIMN11dragonBones14JSONDataParserEKFPNS1_18AnimationFrameDataERKN9rapidjson12GenericValueINS5_4UTF8IcEENS5_19MemoryPoolAllocatorINS5_12CrtAllocatorEEEEEjjEEE
  0x0075679c _ZTISt5_BindIFSt7_Mem_fnIMN11dragonBones14JSONDataParserEKFPNS1_18AnimationFrameDataERKN9rapidjson12GenericValueINS5_4UTF8IcEENS5_19MemoryPoolAllocatorINS5_12CrtAllocatorEEEEEjjEEPKS2_St12_PlaceholderILi1EESK_ILi2EESK_ILi3EEEE
  0x00756cb0 _ZTVN11dragonBones10DataParserE
  0x00774298 json_number_chars
  0x0077429c json_hex_chars
  0x007744a8 _ZN12ngHttpClient8m_gameIdE
  0x00774608 _ZN11dragonBones10DataParser16DATA_VERSION_2_3E
  0x0077460c _ZN11dragonBones10DataParser16DATA_VERSION_3_0E
  0x00774610 _ZN11dragonBones10DataParser16DATA_VERSION_4_0E
  0x00774614 _ZN11dragonBones10DataParser12DATA_VERSIONE
  0x00774618 _ZN11dragonBones10DataParser13TEXTURE_ATLASE
  0x0077461c _ZN11dragonBones10DataParser11SUB_TEXTUREE
  0x00774620 _ZN11dragonBones10DataParser6FORMATE
  0x00774624 _ZN11dragonBones10DataParser10IMAGE_PATHE
  0x00774628 _ZN11dragonBones10DataParser5WIDTHE
  0x0077462c _ZN11dragonBones10DataParser6HEIGHTE
  0x00774630 _ZN11dragonBones10DataParser7ROTATEDE
  0x00774634 _ZN11dragonBones10DataParser7FRAME_XE
  0x00774638 _ZN11dragonBones10DataParser7FRAME_YE
  0x0077463c _ZN11dragonBones10DataParser11FRAME_WIDTHE
  0x00774640 _ZN11dragonBones10DataParser12FRAME_HEIGHTE
  0x00774644 _ZN11dragonBones10DataParser12DRADON_BONESE
  0x00774648 _ZN11dragonBones10DataParser8ARMATUREE
  0x0077464c _ZN11dragonBones10DataParser4BONEE
  0x00774650 _ZN11dragonBones10DataParser2IKE
  0x00774654 _ZN11dragonBones10DataParser4SLOTE
  0x00774658 _ZN11dragonBones10DataParser4SKINE
  0x0077465c _ZN11dragonBones10DataParser7DISPLAYE
  0x00774660 _ZN11dragonBones10DataParser9ANIMATIONE
  0x00774664 _ZN11dragonBones10DataParser3FFDE
  0x00774668 _ZN11dragonBones10DataParser5FRAMEE
  0x0077466c _ZN11dragonBones10DataParser5PIVOTE
  0x00774670 _ZN11dragonBones10DataParser9TRANSFORME
  0x00774674 _ZN11dragonBones10DataParser4AABBE
  0x00774678 _ZN11dragonBones10DataParser5COLORE
  0x0077467c _ZN11dragonBones10DataParser6FILTERE
  0x00774680 _ZN11dragonBones10DataParser7VERSIONE
  0x00774684 _ZN11dragonBones10DataParser9IS_GLOBALE
  0x00774688 _ZN11dragonBones10DataParser10FRAME_RATEE
  0x0077468c _ZN11dragonBones10DataParser4TYPEE
  0x00774690 _ZN11dragonBones10DataParser4NAMEE
  0x00774694 _ZN11dragonBones10DataParser6PARENTE
  0x00774698 _ZN11dragonBones10DataParser6LENGTHE
  0x0077469c _ZN11dragonBones10DataParser4DATAE
  0x007746a0 _ZN11dragonBones10DataParser13DISPLAY_INDEXE
  0x007746a4 _ZN11dragonBones10DataParser7Z_ORDERE
  0x007746a8 _ZN11dragonBones10DataParser10BLEND_MODEE
  0x007746ac _ZN11dragonBones10DataParser19INHERIT_TRANSLATIONE
  0x007746b0 _ZN11dragonBones10DataParser16INHERIT_ROTATIONE
  0x007746b4 _ZN11dragonBones10DataParser13INHERIT_SCALEE
  0x007746b8 _ZN11dragonBones10DataParser6TARGETE
  0x007746bc _ZN11dragonBones10DataParser13BEND_POSITIVEE
  0x007746c0 _ZN11dragonBones10DataParser5CHAINE
  0x007746c4 _ZN11dragonBones10DataParser6WEIGHTE
  0x007746c8 _ZN11dragonBones10DataParser12FADE_IN_TIMEE
  0x007746cc _ZN11dragonBones10DataParser10PLAY_TIMESE
  0x007746d0 _ZN11dragonBones10DataParser5SCALEE
  0x007746d4 _ZN11dragonBones10DataParser6OFFSETE
  0x007746d8 _ZN11dragonBones10DataParser8POSITIONE
  0x007746dc _ZN11dragonBones10DataParser8DURATIONE
  0x007746e0 _ZN11dragonBones10DataParser12TWEEN_EASINGE
  0x007746e4 _ZN11dragonBones10DataParser12TWEEN_ROTATEE
  0x007746e8 _ZN11dragonBones10DataParser11TWEEN_SCALEE
  0x007746ec _ZN11dragonBones10DataParser5CURVEE
  0x007746f0 _ZN11dragonBones10DataParser5EVENTE
  0x007746f4 _ZN11dragonBones10DataParser5SOUNDE
  0x007746f8 _ZN11dragonBones10DataParser6ACTIONE
  0x007746fc _ZN11dragonBones10DataParser7ACTIONSE
  0x00774700 _ZN11dragonBones10DataParser15DEFAULT_ACTIONSE
  0x00774704 _ZN11dragonBones10DataParser1XE
  0x00774708 _ZN11dragonBones10DataParser1YE
  0x0077470c _ZN11dragonBones10DataParser6SKEW_XE
  0x00774710 _ZN11dragonBones10DataParser6SKEW_YE
  0x00774714 _ZN11dragonBones10DataParser7SCALE_XE
  0x00774718 _ZN11dragonBones10DataParser7SCALE_YE
  0x0077471c _ZN11dragonBones10DataParser12ALPHA_OFFSETE
  0x00774720 _ZN11dragonBones10DataParser10RED_OFFSETE
  0x00774724 _ZN11dragonBones10DataParser12GREEN_OFFSETE
  0x00774728 _ZN11dragonBones10DataParser11BLUE_OFFSETE
  0x0077472c _ZN11dragonBones10DataParser16ALPHA_MULTIPLIERE
  0x00774730 _ZN11dragonBones10DataParser14RED_MULTIPLIERE
  0x00774734 _ZN11dragonBones10DataParser16GREEN_MULTIPLIERE
  0x00774738 _ZN11dragonBones10DataParser15BLUE_MULTIPLIERE
  0x0077473c _ZN11dragonBones10DataParser3UVSE
  0x00774740 _ZN11dragonBones10DataParser8VERTICESE
  0x00774744 _ZN11dragonBones10DataParser9TRIANGLESE
  0x00774748 _ZN11dragonBones10DataParser7WEIGHTSE
  0x0077474c _ZN11dragonBones10DataParser9SLOT_POSEE
  0x00774750 _ZN11dragonBones10DataParser9BONE_POSEE
  0x00774754 _ZN11dragonBones10DataParser5TWEENE
  0x00774758 _ZN11dragonBones10DataParser3KEYE
  0x0077475c _ZN11dragonBones10DataParser15COLOR_TRANSFORME
  0x00774760 _ZN11dragonBones10DataParser8TIMELINEE
  0x00774764 _ZN11dragonBones10DataParser7PIVOT_XE
  0x00774768 _ZN11dragonBones10DataParser7PIVOT_YE
  0x0077476c _ZN11dragonBones10DataParser4LOOPE
  0x00774770 _ZN11dragonBones10DataParser10AUTO_TWEENE
  0x00774774 _ZN11dragonBones10DataParser4HIDEE
  0x007748e8 _ZN10ngRC4Mnger7m_pThisE
  0x00774e90 _ZN12ngHttpClient13m_gameVersionE
  0x00774e94 _ZN12ngHttpClient10m_platformE
  0x00774e98 _ZN12ngHttpClient11m_serverIdxE
  0x007755a0 _ZN11dragonBones11BaseFactory18_defaultDataParserE
  0x0077567c _ZZN9rapidjson12GenericValueINS_4UTF8IcEENS_19MemoryPoolAllocatorINS_12CrtAllocatorEEEEixIS5_EERS6_RKNS0_IS2_T_EEE6buffer

========================================================================
(C) key symbol resolution
========================================================================
  _ZN11CHttpClient12CheckVersionEv: va=0x0044f610 size=0xb0
  _ZN14CLoadingScreen14DoCheckVersionEv: va=0x0048f862 size=0x20
  _ZN14CLoadingScreen11CheckUpdateEPKcS1_: va=0x0048f8b0 size=0xa8
  _ZN14CLoadingScreen17OnReceiveResponseEiPv: va=0x0048fe20 size=0x5f8
  _ZN14CLoadingScreen14OnReceiveErrorEPKcS1_Pv: va=0x00490810 size=0x114
  _ZN14CLoadingScreen15DoGetServerInfoEh: va=0x00490dd0 size=0x1c

===== OnReceiveResponse  va=0x0048fe20 off=0x48fe20 len=0x5f8 =====
  0x0048fe20: f0b5     push    {r4, r5, r6, r7, lr}
  0x0048fe22: 99b0     sub     sp, #0x64
  0x0048fe24: 1646     mov     r6, r2
  0x0048fe26: 0446     mov     r4, r0
  0x0048fe28: e329     cmp     r1, #0xe3  <== CMP
  0x0048fe2a: 09dc     bgt     #0x48fe40
  0x0048fe2c: 6929     cmp     r1, #0x69  <== CMP
  0x0048fe2e: 21d0     beq     #0x48fe74
  0x0048fe30: 7929     cmp     r1, #0x79  <== CMP
  0x0048fe32: 49d1     bne     #0x48fec8
  0x0048fe34: 03f2eaf9 bl      #0x69320c  ; -> __udivdi3+0x5f0
  0x0048fe38: 2049     ldr     r1, [pc, #0x80]  ; lit=0x00001bf0
  0x0048fe3a: 0022     movs    r2, #0
  0x0048fe3c: 4254     strb    r2, [r0, r1]
  0x0048fe3e: 95e2     b       #0x49036c
  0x0048fe40: e429     cmp     r1, #0xe4  <== CMP
  0x0048fe42: 00d0     beq     #0x48fe46
  0x0048fe44: 92e2     b       #0x49036c
  0x0048fe46: 03f2e1f9 bl      #0x69320c  ; -> __udivdi3+0x5f0
  0x0048fe4a: 1d49     ldr     r1, [pc, #0x74]  ; lit=0x00001bcc
  0x0048fe4c: 4018     adds    r0, r0, r1
  0x0048fe4e: 0821     movs    r1, #8
  0x0048fe50: 18f21cff bl      #0x6a8c8c  ; -> __udivdi3+0x16070
  0x0048fe54: 0028     cmp     r0, #0  <== CMP
  0x0048fe56: 00d0     beq     #0x48fe5a
  0x0048fe58: 88e2     b       #0x49036c
  0x0048fe5a: 03f2d7f9 bl      #0x69320c  ; -> __udivdi3+0x5f0
  0x0048fe5e: 1749     ldr     r1, [pc, #0x5c]  ; lit=0x00001bf0
  0x0048fe60: 0022     movs    r2, #0
  0x0048fe62: 4254     strb    r2, [r0, r1]
  0x0048fe64: 05f262fa bl      #0x69532c  ; -> __udivdi3+0x2710
  0x0048fe68: 3146     mov     r1, r6
  0x0048fe6a: 1bf2a7fc bl      #0x6ab7bc  ; -> __udivdi3+0x18ba0
  0x0048fe6e: 1bf245fc bl      #0x6ab6fc  ; -> __udivdi3+0x18ae0
  0x0048fe72: 7be2     b       #0x49036c
  0x0048fe74: 03f2caf9 bl      #0x69320c  ; -> __udivdi3+0x5f0
  0x0048fe78: 1149     ldr     r1, [pc, #0x44]  ; lit=0x00001bcc
  0x0048fe7a: 4018     adds    r0, r0, r1
  0x0048fe7c: 0721     movs    r1, #7
  0x0048fe7e: 18f205ff bl      #0x6a8c8c  ; -> __udivdi3+0x16070
  0x0048fe82: 0028     cmp     r0, #0  <== CMP
  0x0048fe84: 00d0     beq     #0x48fe88
  0x0048fe86: 71e2     b       #0x49036c
  0x0048fe88: 03f2c0f9 bl      #0x69320c  ; -> __udivdi3+0x5f0
  0x0048fe8c: 0b49     ldr     r1, [pc, #0x2c]  ; lit=0x00001bf0
  0x0048fe8e: 0022     movs    r2, #0
  0x0048fe90: 4254     strb    r2, [r0, r1]
  0x0048fe92: 03f2bbf9 bl      #0x69320c  ; -> __udivdi3+0x5f0
  0x0048fe96: 002e     cmp     r6, #0  <== CMP
  0x0048fe98: 06d0     beq     #0x48fea8
  0x0048fe9a: 03f2b7f9 bl      #0x69320c  ; -> __udivdi3+0x5f0
  0x0048fe9e: 0949     ldr     r1, [pc, #0x24]  ; lit=0x000008a8 "Y"
  0x0048fea0: 4018     adds    r0, r0, r1
  0x0048fea2: 3146     mov     r1, r6
  0x0048fea4: 18f222ff bl      #0x6a8cec  ; -> __udivdi3+0x160d0
  0x0048fea8: 03f2b0f9 bl      #0x69320c  ; -> __udivdi3+0x5f0
  0x0048feac: 0449     ldr     r1, [pc, #0x10]  ; lit=0x00001bcc
  0x0048feae: 4018     adds    r0, r0, r1
  0x0048feb0: 0721     movs    r1, #7
  0x0048feb2: 0822     movs    r2, #8
  0x0048feb4: 0023     movs    r3, #0
  0x0048feb6: 18f229ff bl      #0x6a8d0c  ; -> __udivdi3+0x160f0
  0x0048feba: 57e2     b       #0x49036c
  0x0048febc: f01b     subs    r0, r6, r7
  0x0048febe: 0000     movs    r0, r0
  0x0048fec0: cc1b     subs    r4, r1, r7
  0x0048fec2: 0000     movs    r0, r0
  0x0048fec4: a808     lsrs    r0, r5, #2
  0x0048fec6: 0000     movs    r0, r0
  0x0048fec8: 8029     cmp     r1, #0x80  <== CMP
  0x0048feca: 00d0     beq     #0x48fece
  0x0048fecc: 4ee2     b       #0x49036c
  0x0048fece: 002e     cmp     r6, #0  <== CMP
  0x0048fed0: 00d1     bne     #0x48fed4
  0x0048fed2: 4be2     b       #0x49036c
  0x0048fed4: 03f29af9 bl      #0x69320c  ; -> __udivdi3+0x5f0
  0x0048fed8: 0349     ldr     r1, [pc, #0xc]  ; lit=0x00001bcc
  0x0048feda: 4018     adds    r0, r0, r1
  0x0048fedc: 0121     movs    r1, #1
  0x0048fede: 18f2d5fe bl      #0x6a8c8c  ; -> __udivdi3+0x16070
  0x0048fee2: 0028     cmp     r0, #0  <== CMP
  0x0048fee4: 02d0     beq     #0x48feec
  0x0048fee6: 41e2     b       #0x49036c
  0x0048fee8: cc1b     subs    r4, r1, r7
  0x0048feea: 0000     movs    r0, r0
  0x0048feec: 03f28ef9 bl      #0x69320c  ; -> __udivdi3+0x5f0
  0x0048fef0: 0849     ldr     r1, [pc, #0x20]  ; lit=0x00001bf0
  0x0048fef2: 0027     movs    r7, #0
  0x0048fef4: 4754     strb    r7, [r0, r1]
  0x0048fef6: 0848     ldr     r0, [pc, #0x20]  ; lit=0x002cac24
  0x0048fef8: 7844     add     r0, pc  ; =0x0075ab20 -> _ZTVSt8bad_cast+0x2d90
  0x0048fefa: 0849     ldr     r1, [pc, #0x20]  ; lit=0xfffa3c8a
  0x0048fefc: 0918     adds    r1, r1, r0
  0x0048fefe: 7068     ldr     r0, [r6, #4]
  0x0048ff00: 026c     ldr     r2, [r0, #0x40]
  0x0048ff02: 301d     adds    r0, r6, #4
  0x0048ff04: 0490     str     r0, [sp, #0x10]
  0x0048ff06: 9047     blx     r2
  0x0048ff08: 0028     cmp     r0, #0  <== CMP
  0x0048ff0a: 3a46     mov     r2, r7
  0x0048ff0c: 3946     mov     r1, r7
  0x0048ff0e: 0bd0     beq     #0x48ff28
  0x0048ff10: 06e0     b       #0x48ff20
  0x0048ff12: c046     mov     r8, r8
  0x0048ff14: f01b     subs    r0, r6, r7
  0x0048ff16: 0000     movs    r0, r0
  0x0048ff18: 24ac     add     r4, sp, #0x90
  0x0048ff1a: 2c00     movs    r4, r5
  0x0048ff1c: 8a3c     subs    r4, #0x8a  <== CMP

===== CheckUpdate  va=0x0048f8b0 off=0x48f8b0 len=0xa8 =====
  0x0048f8b0: f0b5     push    {r4, r5, r6, r7, lr}
  0x0048f8b2: 83b0     sub     sp, #0xc
  0x0048f8b4: 1446     mov     r4, r2
  0x0048f8b6: 0e46     mov     r6, r1
  0x0048f8b8: 0546     mov     r5, r0
  0x0048f8ba: 002c     cmp     r4, #0  <== CMP
  0x0048f8bc: 2ed0     beq     #0x48f91c
  0x0048f8be: 04f25df9 bl      #0x693b7c  ; -> __udivdi3+0xf60
  0x0048f8c2: 0168     ldr     r1, [r0]
  0x0048f8c4: 8a6a     ldr     r2, [r1, #0x28]
  0x0048f8c6: 3146     mov     r1, r6
  0x0048f8c8: 9047     blx     r2
  0x0048f8ca: 04f257f9 bl      #0x693b7c  ; -> __udivdi3+0xf60
  0x0048f8ce: 0168     ldr     r1, [r0]
  0x0048f8d0: ca6a     ldr     r2, [r1, #0x2c]
  0x0048f8d2: 2146     mov     r1, r4
  0x0048f8d4: 9047     blx     r2
  0x0048f8d6: 04f251f9 bl      #0x693b7c  ; -> __udivdi3+0xf60
  0x0048f8da: 0168     ldr     r1, [r0]
  0x0048f8dc: 8e68     ldr     r6, [r1, #8]
  0x0048f8de: 0023     movs    r3, #0
  0x0048f8e0: 0293     str     r3, [sp, #8]
  0x0048f8e2: 6946     mov     r1, sp
  0x0048f8e4: 0b60     str     r3, [r1]
  0x0048f8e6: 291d     adds    r1, r5, #4
  0x0048f8e8: 0722     movs    r2, #7
  0x0048f8ea: b047     blx     r6
  0x0048f8ec: ab20     movs    r0, #0xab
  0x0048f8ee: 8000     lsls    r0, r0, #2
  0x0048f8f0: 2f5c     ldrb    r7, [r5, r0]
  0x0048f8f2: 4b20     movs    r0, #0x4b
  0x0048f8f4: c400     lsls    r4, r0, #3
  0x0048f8f6: 2819     adds    r0, r5, r4
  0x0048f8f8: 0190     str     r0, [sp, #4]
  0x0048f8fa: 04f23ff9 bl      #0x693b7c  ; -> __udivdi3+0xf60
  0x0048f8fe: 0646     mov     r6, r0
  0x0048f900: 2859     ldr     r0, [r5, r4]
  0x0048f902: 3168     ldr     r1, [r6]
  0x0048f904: 4c6b     ldr     r4, [r1, #0x34]
  0x0048f906: 1521     movs    r1, #0x15
  0x0048f908: 04f298f8 bl      #0x693a3c  ; -> __udivdi3+0xe20
  0x0048f90c: 0546     mov     r5, r0
  0x0048f90e: 002f     cmp     r7, #0  <== CMP
  0x0048f910: 0ce0     b       #0x48f92c  *PATCH*
  0x0048f912: 0022     movs    r2, #0
  0x0048f914: 3046     mov     r0, r6
  0x0048f916: 2946     mov     r1, r5
  0x0048f918: a047     blx     r4
  0x0048f91a: 11e0     b       #0x48f940
  0x0048f91c: 03f276fc bl      #0x69320c  ; -> __udivdi3+0x5f0
  0x0048f920: 0c49     ldr     r1, [pc, #0x30]  ; lit=0x00001bcc
  0x0048f922: 4018     adds    r0, r0, r1
  0x0048f924: 0121     movs    r1, #1
  0x0048f926: 19f2b9f9 bl      #0x6a8c9c  ; -> __udivdi3+0x16080
  0x0048f92a: 0ee0     b       #0x48f94a
  0x0048f92c: 0198     ldr     r0, [sp, #4]
  0x0048f92e: 0068     ldr     r0, [r0]
  0x0048f930: 1621     movs    r1, #0x16
  0x0048f932: 04f283f8 bl      #0x693a3c  ; -> __udivdi3+0xe20
  0x0048f936: 0246     mov     r2, r0
  0x0048f938: 0023     movs    r3, #0
  0x0048f93a: 3046     mov     r0, r6
  0x0048f93c: 2946     mov     r1, r5
  0x0048f93e: a047     blx     r4
  0x0048f940: 03f264fc bl      #0x69320c  ; -> __udivdi3+0x5f0
  0x0048f944: 0249     ldr     r1, [pc, #8]  ; lit=0x00001bf0
  0x0048f946: 029a     ldr     r2, [sp, #8]
  0x0048f948: 4254     strb    r2, [r0, r1]
  0x0048f94a: 03b0     add     sp, #0xc
  0x0048f94c: f0bd     pop     {r4, r5, r6, r7, pc}
  0x0048f94e: c046     mov     r8, r8
  0x0048f950: f01b     subs    r0, r6, r7
  0x0048f952: 0000     movs    r0, r0
  0x0048f954: cc1b     subs    r4, r1, r7
  0x0048f956: 0000     movs    r0, r0

===== DoCheckVersion  va=0x0048f862 off=0x48f862 len=0x20 =====
  0x0048f862: 10b5     push    {r4, lr}
  0x0048f864: 0446     mov     r4, r0
  0x0048f866: 0121     movs    r1, #1
  0x0048f868: 1bf258ff bl      #0x6ab71c  ; -> __udivdi3+0x18b00
  0x0048f86c: 1b20     movs    r0, #0x1b
  0x0048f86e: 0001     lsls    r0, r0, #4
  0x0048f870: 0021     movs    r1, #0
  0x0048f872: 2150     str     r1, [r4, r0]
  0x0048f874: e834     adds    r4, #0xe8
  0x0048f876: 2046     mov     r0, r4
  0x0048f878: 03f260fc bl      #0x69313c  ; -> __udivdi3+0x520
  0x0048f87c: 1bf25eff bl      #0x6ab73c  ; -> __udivdi3+0x18b20
  0x0048f880: 10bd     pop     {r4, pc}

===== OnReceiveError  va=0x00490810 off=0x490810 len=0x114 =====
  0x00490810: f0b5     push    {r4, r5, r6, r7, lr}
  0x00490812: 8fb0     sub     sp, #0x3c
  0x00490814: 1546     mov     r5, r2
  0x00490816: 0446     mov     r4, r0
  0x00490818: 09a8     add     r0, sp, #0x24
  0x0049081a: 02f28ffd bl      #0x69333c  ; -> __udivdi3+0x720
  0x0049081e: 02f295fd bl      #0x69334c  ; -> __udivdi3+0x730
  0x00490822: 7321     movs    r1, #0x73
  0x00490824: 8900     lsls    r1, r1, #2
  0x00490826: 6050     str     r0, [r4, r1]
  0x00490828: 6718     adds    r7, r4, r1
  0x0049082a: 9520     movs    r0, #0x95
  0x0049082c: 8000     lsls    r0, r0, #2
  0x0049082e: 205c     ldrb    r0, [r4, r0]
  0x00490830: 0028     cmp     r0, #0  <== CMP
  0x00490832: 04d1     bne     #0x49083e
  0x00490834: 02f20afc bl      #0x69304c  ; -> __udivdi3+0x430
  0x00490838: 0168     ldr     r1, [r0]
  0x0049083a: c968     ldr     r1, [r1, #0xc]
  0x0049083c: 8847     blx     r1
  0x0049083e: 02f2e5fc bl      #0x69320c  ; -> __udivdi3+0x5f0
  0x00490842: 3349     ldr     r1, [pc, #0xcc]  ; lit=0x00001bf0
  0x00490844: 0026     movs    r6, #0
  0x00490846: 4654     strb    r6, [r0, r1]
  0x00490848: 3868     ldr     r0, [r7]
  0x0049084a: 3249     ldr     r1, [pc, #0xc8]  ; lit=0x000009a9
  0x0049084c: 8842     cmp     r0, r1
  0x0049084e: 17d0     beq     #0x490880
  0x00490850: 3149     ldr     r1, [pc, #0xc4]  ; lit=0xfffff7a6
  0x00490852: 4018     adds    r0, r0, r1
  0x00490854: 0128     cmp     r0, #1  <== CMP
  0x00490856: 28d8     bhi     #0x4908aa
  0x00490858: 03ae     add     r6, sp, #0xc
  0x0049085a: 3046     mov     r0, r6
  0x0049085c: 2946     mov     r1, r5
  0x0049085e: 02f26dfd bl      #0x69333c  ; -> __udivdi3+0x720
  0x00490862: 02f2a3fb bl      #0x692fac  ; -> __udivdi3+0x390
  0x00490866: 0430     adds    r0, #4
  0x00490868: 2d49     ldr     r1, [pc, #0xb4]  ; lit=0x00000183
  0x0049086a: 02f2a7fb bl      #0x692fbc  ; -> __udivdi3+0x3a0
  0x0049086e: 0246     mov     r2, r0
  0x00490870: 2046     mov     r0, r4
  0x00490872: 3146     mov     r1, r6
  0x00490874: 13f2d2f9 bl      #0x6a3c1c  ; -> __udivdi3+0x11000
  0x00490878: 3046     mov     r0, r6
  0x0049087a: 02f27ffb bl      #0x692f7c  ; -> __udivdi3+0x360
  0x0049087e: 41e0     b       #0x490904
  0x00490880: 1bf244f8 bl      #0x6ab90c  ; -> __udivdi3+0x18cf0
  0x00490884: 02f292fb bl      #0x692fac  ; -> __udivdi3+0x390
  0x00490888: 0430     adds    r0, #4
  0x0049088a: 2449     ldr     r1, [pc, #0x90]  ; lit=0x00000e48
  0x0049088c: 02f296fb bl      #0x692fbc  ; -> __udivdi3+0x3a0
  0x00490890: 0546     mov     r5, r0
  0x00490892: 02f28bfb bl      #0x692fac  ; -> __udivdi3+0x390
  0x00490896: 0430     adds    r0, #4
  0x00490898: 2149     ldr     r1, [pc, #0x84]  ; lit=0x00000183
  0x0049089a: 02f28ffb bl      #0x692fbc  ; -> __udivdi3+0x3a0
  0x0049089e: 0246     mov     r2, r0
  0x004908a0: 2046     mov     r0, r4
  0x004908a2: 2946     mov     r1, r5
  0x004908a4: 13f2baf9 bl      #0x6a3c1c  ; -> __udivdi3+0x11000
  0x004908a8: 2ce0     b       #0x490904
  0x004908aa: 03f267f9 bl      #0x693b7c  ; -> __udivdi3+0xf60
  0x004908ae: 0168     ldr     r1, [r0]
  0x004908b0: 8f68     ldr     r7, [r1, #8]
  0x004908b2: 6946     mov     r1, sp
  0x004908b4: 0e60     str     r6, [r1]
  0x004908b6: 211d     adds    r1, r4, #4
  0x004908b8: 0722     movs    r2, #7
  0x004908ba: 3346     mov     r3, r6
  0x004908bc: b847     blx     r7
  0x004908be: 03f25df9 bl      #0x693b7c  ; -> __udivdi3+0xf60
  0x004908c2: 0168     ldr     r1, [r0]
  0x004908c4: 8a6a     ldr     r2, [r1, #0x28]
  0x004908c6: 2946     mov     r1, r5
  0x004908c8: 9047     blx     r2
  0x004908ca: 4b20     movs    r0, #0x4b
  0x004908cc: c700     lsls    r7, r0, #3
  0x004908ce: 03f255f9 bl      #0x693b7c  ; -> __udivdi3+0xf60
  0x004908d2: 0546     mov     r5, r0
  0x004908d4: e059     ldr     r0, [r4, r7]
  0x004908d6: 2968     ldr     r1, [r5]
  0x004908d8: 496a     ldr     r1, [r1, #0x24]
  0x004908da: 0291     str     r1, [sp, #8]
  0x004908dc: 1221     movs    r1, #0x12
  0x004908de: 03f2adf8 bl      #0x693a3c  ; -> __udivdi3+0xe20
  0x004908e2: 0146     mov     r1, r0
  0x004908e4: 2846     mov     r0, r5
  0x004908e6: 029a     ldr     r2, [sp, #8]
  0x004908e8: 9047     blx     r2
  0x004908ea: 03f247f9 bl      #0x693b7c  ; -> __udivdi3+0xf60
  0x004908ee: 0546     mov     r5, r0
  0x004908f0: e059     ldr     r0, [r4, r7]
  0x004908f2: 2968     ldr     r1, [r5]
  0x004908f4: 4c6b     ldr     r4, [r1, #0x34]
  0x004908f6: 1521     movs    r1, #0x15
  0x004908f8: 03f2a0f8 bl      #0x693a3c  ; -> __udivdi3+0xe20
  0x004908fc: 0146     mov     r1, r0
  0x004908fe: 2846     mov     r0, r5
  0x00490900: 3246     mov     r2, r6
  0x00490902: a047     blx     r4
  0x00490904: 09a8     add     r0, sp, #0x24
  0x00490906: 02f239fb bl      #0x692f7c  ; -> __udivdi3+0x360
  0x0049090a: 0fb0     add     sp, #0x3c
  0x0049090c: f0bd     pop     {r4, r5, r6, r7, pc}
  0x0049090e: c046     mov     r8, r8
  0x00490910: f01b     subs    r0, r6, r7
  0x00490912: 0000     movs    r0, r0
  0x00490914: a909     lsrs    r1, r5, #6
  0x00490916: 0000     movs    r0, r0
  0x00490918: a6f7ffff bl      #0x43791a  ; -> _ZN17CHG_CaptureScreen23OnStartCaptureOperationEi+0x1d2
  0x0049091c: 480e     lsrs    r0, r1, #0x19
  0x0049091e: 0000     movs    r0, r0
  0x00490920: 8301     lsls    r3, r0, #6
  0x00490922: 0000     movs    r0, r0
